
GccApplication1.elf:     file format elf32-avr

Sections:
Idx Name          Size      VMA       LMA       File off  Algn
  0 .data         0000007e  00800100  0000162c  000016c0  2**0
                  CONTENTS, ALLOC, LOAD, DATA
  1 .text         0000162c  00000000  00000000  00000094  2**1
                  CONTENTS, ALLOC, LOAD, READONLY, CODE
  2 .bss          000000a0  0080017e  0080017e  0000173e  2**0
                  ALLOC
  3 .comment      0000005c  00000000  00000000  0000173e  2**0
                  CONTENTS, READONLY
  4 .note.gnu.avr.deviceinfo 00000040  00000000  00000000  0000179c  2**2
                  CONTENTS, READONLY
  5 .debug_aranges 000001d0  00000000  00000000  000017dc  2**0
                  CONTENTS, READONLY, DEBUGGING
  6 .debug_info   00001d74  00000000  00000000  000019ac  2**0
                  CONTENTS, READONLY, DEBUGGING
  7 .debug_abbrev 00000909  00000000  00000000  00003720  2**0
                  CONTENTS, READONLY, DEBUGGING
  8 .debug_line   0000126e  00000000  00000000  00004029  2**0
                  CONTENTS, READONLY, DEBUGGING
  9 .debug_frame  000004c4  00000000  00000000  00005298  2**2
                  CONTENTS, READONLY, DEBUGGING
 10 .debug_str    00000663  00000000  00000000  0000575c  2**0
                  CONTENTS, READONLY, DEBUGGING
 11 .debug_loc    00000fef  00000000  00000000  00005dbf  2**0
                  CONTENTS, READONLY, DEBUGGING
 12 .debug_ranges 000001b0  00000000  00000000  00006dae  2**0
                  CONTENTS, READONLY, DEBUGGING

Disassembly of section .text:

00000000 <__vectors>:
       0:	0c 94 34 01 	jmp	0x268	; 0x268 <__ctors_end>
       4:	0c 94 6e 03 	jmp	0x6dc	; 0x6dc <__vector_1>
       8:	0c 94 51 01 	jmp	0x2a2	; 0x2a2 <__bad_interrupt>
       c:	0c 94 51 01 	jmp	0x2a2	; 0x2a2 <__bad_interrupt>
      10:	0c 94 51 01 	jmp	0x2a2	; 0x2a2 <__bad_interrupt>
      14:	0c 94 51 01 	jmp	0x2a2	; 0x2a2 <__bad_interrupt>
      18:	0c 94 51 01 	jmp	0x2a2	; 0x2a2 <__bad_interrupt>
      1c:	0c 94 51 01 	jmp	0x2a2	; 0x2a2 <__bad_interrupt>
      20:	0c 94 51 01 	jmp	0x2a2	; 0x2a2 <__bad_interrupt>
      24:	0c 94 51 01 	jmp	0x2a2	; 0x2a2 <__bad_interrupt>
      28:	0c 94 51 01 	jmp	0x2a2	; 0x2a2 <__bad_interrupt>
      2c:	0c 94 87 03 	jmp	0x70e	; 0x70e <__vector_11>
      30:	0c 94 51 01 	jmp	0x2a2	; 0x2a2 <__bad_interrupt>
      34:	0c 94 51 01 	jmp	0x2a2	; 0x2a2 <__bad_interrupt>
      38:	0c 94 51 01 	jmp	0x2a2	; 0x2a2 <__bad_interrupt>
      3c:	0c 94 51 01 	jmp	0x2a2	; 0x2a2 <__bad_interrupt>
      40:	0c 94 51 01 	jmp	0x2a2	; 0x2a2 <__bad_interrupt>
      44:	0c 94 51 01 	jmp	0x2a2	; 0x2a2 <__bad_interrupt>
      48:	0c 94 51 01 	jmp	0x2a2	; 0x2a2 <__bad_interrupt>
      4c:	0c 94 51 01 	jmp	0x2a2	; 0x2a2 <__bad_interrupt>
      50:	0c 94 51 01 	jmp	0x2a2	; 0x2a2 <__bad_interrupt>
      54:	0c 94 51 01 	jmp	0x2a2	; 0x2a2 <__bad_interrupt>
      58:	0c 94 51 01 	jmp	0x2a2	; 0x2a2 <__bad_interrupt>
      5c:	0c 94 51 01 	jmp	0x2a2	; 0x2a2 <__bad_interrupt>
      60:	0c 94 a2 04 	jmp	0x944	; 0x944 <__vector_24>
      64:	0c 94 51 01 	jmp	0x2a2	; 0x2a2 <__bad_interrupt>
      68:	c2 04       	cpc	r12, r2
      6a:	66 06       	cpc	r6, r22
      6c:	66 06       	cpc	r6, r22
      6e:	66 06       	cpc	r6, r22
      70:	66 06       	cpc	r6, r22
      72:	66 06       	cpc	r6, r22
      74:	66 06       	cpc	r6, r22
      76:	66 06       	cpc	r6, r22
      78:	d0 04       	cpc	r13, r0
      7a:	66 06       	cpc	r6, r22
      7c:	66 06       	cpc	r6, r22
      7e:	66 06       	cpc	r6, r22
      80:	66 06       	cpc	r6, r22
      82:	66 06       	cpc	r6, r22
      84:	66 06       	cpc	r6, r22
      86:	66 06       	cpc	r6, r22
      88:	e7 04       	cpc	r14, r7
      8a:	66 06       	cpc	r6, r22
      8c:	66 06       	cpc	r6, r22
      8e:	66 06       	cpc	r6, r22
      90:	66 06       	cpc	r6, r22
      92:	66 06       	cpc	r6, r22
      94:	66 06       	cpc	r6, r22
      96:	66 06       	cpc	r6, r22
      98:	ff 04       	cpc	r15, r15
      9a:	66 06       	cpc	r6, r22
      9c:	66 06       	cpc	r6, r22
      9e:	66 06       	cpc	r6, r22
      a0:	66 06       	cpc	r6, r22
      a2:	66 06       	cpc	r6, r22
      a4:	66 06       	cpc	r6, r22
      a6:	66 06       	cpc	r6, r22
      a8:	2b 05       	cpc	r18, r11
      aa:	66 06       	cpc	r6, r22
      ac:	66 06       	cpc	r6, r22
      ae:	66 06       	cpc	r6, r22
      b0:	66 06       	cpc	r6, r22
      b2:	66 06       	cpc	r6, r22
      b4:	66 06       	cpc	r6, r22
      b6:	66 06       	cpc	r6, r22
      b8:	39 05       	cpc	r19, r9
      ba:	66 06       	cpc	r6, r22
      bc:	66 06       	cpc	r6, r22
      be:	66 06       	cpc	r6, r22
      c0:	66 06       	cpc	r6, r22
      c2:	66 06       	cpc	r6, r22
      c4:	66 06       	cpc	r6, r22
      c6:	66 06       	cpc	r6, r22
      c8:	7a 05       	cpc	r23, r10
      ca:	66 06       	cpc	r6, r22
      cc:	66 06       	cpc	r6, r22
      ce:	66 06       	cpc	r6, r22
      d0:	66 06       	cpc	r6, r22
      d2:	66 06       	cpc	r6, r22
      d4:	66 06       	cpc	r6, r22
      d6:	66 06       	cpc	r6, r22
      d8:	88 05       	cpc	r24, r8
      da:	66 06       	cpc	r6, r22
      dc:	66 06       	cpc	r6, r22
      de:	66 06       	cpc	r6, r22
      e0:	66 06       	cpc	r6, r22
      e2:	66 06       	cpc	r6, r22
      e4:	66 06       	cpc	r6, r22
      e6:	66 06       	cpc	r6, r22
      e8:	95 05       	cpc	r25, r5
      ea:	66 06       	cpc	r6, r22
      ec:	66 06       	cpc	r6, r22
      ee:	66 06       	cpc	r6, r22
      f0:	66 06       	cpc	r6, r22
      f2:	66 06       	cpc	r6, r22
      f4:	66 06       	cpc	r6, r22
      f6:	66 06       	cpc	r6, r22
      f8:	a7 05       	cpc	r26, r7
      fa:	66 06       	cpc	r6, r22
      fc:	66 06       	cpc	r6, r22
      fe:	66 06       	cpc	r6, r22
     100:	66 06       	cpc	r6, r22
     102:	66 06       	cpc	r6, r22
     104:	66 06       	cpc	r6, r22
     106:	66 06       	cpc	r6, r22
     108:	b5 05       	cpc	r27, r5
     10a:	66 06       	cpc	r6, r22
     10c:	66 06       	cpc	r6, r22
     10e:	66 06       	cpc	r6, r22
     110:	66 06       	cpc	r6, r22
     112:	66 06       	cpc	r6, r22
     114:	66 06       	cpc	r6, r22
     116:	66 06       	cpc	r6, r22
     118:	d1 05       	cpc	r29, r1
     11a:	66 06       	cpc	r6, r22
     11c:	66 06       	cpc	r6, r22
     11e:	66 06       	cpc	r6, r22
     120:	66 06       	cpc	r6, r22
     122:	66 06       	cpc	r6, r22
     124:	66 06       	cpc	r6, r22
     126:	66 06       	cpc	r6, r22
     128:	eb 05       	cpc	r30, r11
     12a:	66 06       	cpc	r6, r22
     12c:	66 06       	cpc	r6, r22
     12e:	66 06       	cpc	r6, r22
     130:	66 06       	cpc	r6, r22
     132:	66 06       	cpc	r6, r22
     134:	66 06       	cpc	r6, r22
     136:	66 06       	cpc	r6, r22
     138:	e2 05       	cpc	r30, r2
     13a:	66 06       	cpc	r6, r22
     13c:	66 06       	cpc	r6, r22
     13e:	66 06       	cpc	r6, r22
     140:	66 06       	cpc	r6, r22
     142:	66 06       	cpc	r6, r22
     144:	66 06       	cpc	r6, r22
     146:	66 06       	cpc	r6, r22
     148:	eb 05       	cpc	r30, r11
     14a:	66 06       	cpc	r6, r22
     14c:	66 06       	cpc	r6, r22
     14e:	66 06       	cpc	r6, r22
     150:	66 06       	cpc	r6, r22
     152:	66 06       	cpc	r6, r22
     154:	66 06       	cpc	r6, r22
     156:	66 06       	cpc	r6, r22
     158:	e2 05       	cpc	r30, r2
     15a:	66 06       	cpc	r6, r22
     15c:	66 06       	cpc	r6, r22
     15e:	66 06       	cpc	r6, r22
     160:	66 06       	cpc	r6, r22
     162:	66 06       	cpc	r6, r22
     164:	66 06       	cpc	r6, r22
     166:	66 06       	cpc	r6, r22
     168:	f6 05       	cpc	r31, r6
     16a:	66 06       	cpc	r6, r22
     16c:	66 06       	cpc	r6, r22
     16e:	66 06       	cpc	r6, r22
     170:	66 06       	cpc	r6, r22
     172:	66 06       	cpc	r6, r22
     174:	66 06       	cpc	r6, r22
     176:	66 06       	cpc	r6, r22
     178:	0c 06       	cpc	r0, r28
     17a:	66 06       	cpc	r6, r22
     17c:	66 06       	cpc	r6, r22
     17e:	66 06       	cpc	r6, r22
     180:	66 06       	cpc	r6, r22
     182:	66 06       	cpc	r6, r22
     184:	66 06       	cpc	r6, r22
     186:	66 06       	cpc	r6, r22
     188:	f6 05       	cpc	r31, r6
     18a:	66 06       	cpc	r6, r22
     18c:	66 06       	cpc	r6, r22
     18e:	66 06       	cpc	r6, r22
     190:	66 06       	cpc	r6, r22
     192:	66 06       	cpc	r6, r22
     194:	66 06       	cpc	r6, r22
     196:	66 06       	cpc	r6, r22
     198:	0c 06       	cpc	r0, r28
     19a:	66 06       	cpc	r6, r22
     19c:	66 06       	cpc	r6, r22
     19e:	66 06       	cpc	r6, r22
     1a0:	66 06       	cpc	r6, r22
     1a2:	66 06       	cpc	r6, r22
     1a4:	66 06       	cpc	r6, r22
     1a6:	66 06       	cpc	r6, r22
     1a8:	25 06       	cpc	r2, r21
     1aa:	66 06       	cpc	r6, r22
     1ac:	66 06       	cpc	r6, r22
     1ae:	66 06       	cpc	r6, r22
     1b0:	66 06       	cpc	r6, r22
     1b2:	66 06       	cpc	r6, r22
     1b4:	66 06       	cpc	r6, r22
     1b6:	66 06       	cpc	r6, r22
     1b8:	32 06       	cpc	r3, r18
     1ba:	66 06       	cpc	r6, r22
     1bc:	66 06       	cpc	r6, r22
     1be:	66 06       	cpc	r6, r22
     1c0:	66 06       	cpc	r6, r22
     1c2:	66 06       	cpc	r6, r22
     1c4:	66 06       	cpc	r6, r22
     1c6:	66 06       	cpc	r6, r22
     1c8:	29 06       	cpc	r2, r25
     1ca:	66 06       	cpc	r6, r22
     1cc:	66 06       	cpc	r6, r22
     1ce:	66 06       	cpc	r6, r22
     1d0:	66 06       	cpc	r6, r22
     1d2:	66 06       	cpc	r6, r22
     1d4:	66 06       	cpc	r6, r22
     1d6:	66 06       	cpc	r6, r22
     1d8:	3c 06       	cpc	r3, r28
     1da:	66 06       	cpc	r6, r22
     1dc:	66 06       	cpc	r6, r22
     1de:	66 06       	cpc	r6, r22
     1e0:	66 06       	cpc	r6, r22
     1e2:	66 06       	cpc	r6, r22
     1e4:	66 06       	cpc	r6, r22
     1e6:	66 06       	cpc	r6, r22
     1e8:	53 06       	cpc	r5, r19
     1ea:	66 06       	cpc	r6, r22
     1ec:	66 06       	cpc	r6, r22
     1ee:	66 06       	cpc	r6, r22
     1f0:	66 06       	cpc	r6, r22
     1f2:	66 06       	cpc	r6, r22
     1f4:	66 06       	cpc	r6, r22
     1f6:	66 06       	cpc	r6, r22
     1f8:	53 06       	cpc	r5, r19

000001fa <Menu_2_1>:
     1fa:	0e 02 0e 02 38 02 5b 02 6f 01 00 00 4f 62 6f 72     ....8.[.o...Obor
     20a:	6f 74 75 00                                         otu.

0000020e <Menu_1_2>:
     20e:	23 02 23 02 49 02 5b 02 68 01 00 00 52 65 7a 68     #.#.I.[.h...Rezh
     21e:	75 6d 20 32 00                                      um 2.

00000223 <Menu_1_1>:
     223:	0e 02 0e 02 49 02 5b 02 61 01 00 00 52 65 7a 68     ....I.[.a...Rezh
     233:	75 6d 20 31 00                                      um 1.

00000238 <Menu_2>:
     238:	49 02 49 02 5b 02 fa 01 5a 01 00 00 4d 45 4e 55     I.I.[...Z...MENU
	...

00000249 <Menu_1>:
     249:	38 02 38 02 5b 02 23 02 53 01 76 01 53 74 61 72     8.8.[.#.S.v.Star
     259:	74 00                                               t.

0000025b <NULL_MENU>:
	...

00000268 <__ctors_end>:
     268:	11 24       	eor	r1, r1
     26a:	1f be       	out	0x3f, r1	; 63
     26c:	cf ef       	ldi	r28, 0xFF	; 255
     26e:	d8 e0       	ldi	r29, 0x08	; 8
     270:	de bf       	out	0x3e, r29	; 62
     272:	cd bf       	out	0x3d, r28	; 61

00000274 <__do_copy_data>:
     274:	11 e0       	ldi	r17, 0x01	; 1
     276:	a0 e0       	ldi	r26, 0x00	; 0
     278:	b1 e0       	ldi	r27, 0x01	; 1
     27a:	ec e2       	ldi	r30, 0x2C	; 44
     27c:	f6 e1       	ldi	r31, 0x16	; 22
     27e:	02 c0       	rjmp	.+4      	; 0x284 <__do_copy_data+0x10>
     280:	05 90       	lpm	r0, Z+
     282:	0d 92       	st	X+, r0
     284:	ae 37       	cpi	r26, 0x7E	; 126
     286:	b1 07       	cpc	r27, r17
     288:	d9 f7       	brne	.-10     	; 0x280 <__do_copy_data+0xc>

0000028a <__do_clear_bss>:
     28a:	22 e0       	ldi	r18, 0x02	; 2
     28c:	ae e7       	ldi	r26, 0x7E	; 126
     28e:	b1 e0       	ldi	r27, 0x01	; 1
     290:	01 c0       	rjmp	.+2      	; 0x294 <.do_clear_bss_start>

00000292 <.do_clear_bss_loop>:
     292:	1d 92       	st	X+, r1

00000294 <.do_clear_bss_start>:
     294:	ae 31       	cpi	r26, 0x1E	; 30
     296:	b2 07       	cpc	r27, r18
     298:	e1 f7       	brne	.-8      	; 0x292 <.do_clear_bss_loop>
     29a:	0e 94 18 04 	call	0x830	; 0x830 <main>
     29e:	0c 94 14 0b 	jmp	0x1628	; 0x1628 <_exit>

000002a2 <__bad_interrupt>:
     2a2:	0c 94 00 00 	jmp	0	; 0x0 <__vectors>

000002a6 <Level1Item1_Select>:
	// Вторая строка - текущий пункт меню
	i2c_lcd_gotoxy(2,1);
	i2c_lcd_puts((char *)Menu_GetCurrentMenu()->Text);

	return (1);
}
     2a6:	81 e0       	ldi	r24, 0x01	; 1
     2a8:	90 e0       	ldi	r25, 0x00	; 0
     2aa:	90 93 81 01 	sts	0x0181, r25	; 0x800181 <men+0x1>
     2ae:	80 93 80 01 	sts	0x0180, r24	; 0x800180 <men>
     2b2:	08 95       	ret

000002b4 <Level2Item1_Select>:
     2b4:	82 e0       	ldi	r24, 0x02	; 2
     2b6:	90 e0       	ldi	r25, 0x00	; 0
     2b8:	90 93 81 01 	sts	0x0181, r25	; 0x800181 <men+0x1>
     2bc:	80 93 80 01 	sts	0x0180, r24	; 0x800180 <men>
     2c0:	08 95       	ret

000002c2 <Level3Item1_Select>:
     2c2:	83 e0       	ldi	r24, 0x03	; 3
     2c4:	90 e0       	ldi	r25, 0x00	; 0
     2c6:	90 93 81 01 	sts	0x0181, r25	; 0x800181 <men+0x1>
     2ca:	80 93 80 01 	sts	0x0180, r24	; 0x800180 <men>
     2ce:	08 95       	ret

000002d0 <Level4Item1_Select>:
     2d0:	84 e0       	ldi	r24, 0x04	; 4
     2d2:	90 e0       	ldi	r25, 0x00	; 0
     2d4:	90 93 81 01 	sts	0x0181, r25	; 0x800181 <men+0x1>
     2d8:	80 93 80 01 	sts	0x0180, r24	; 0x800180 <men>
     2dc:	08 95       	ret

000002de <Level5Item1_Select>:
     2de:	85 e0       	ldi	r24, 0x05	; 5
     2e0:	90 e0       	ldi	r25, 0x00	; 0
     2e2:	90 93 81 01 	sts	0x0181, r25	; 0x800181 <men+0x1>
     2e6:	80 93 80 01 	sts	0x0180, r24	; 0x800180 <men>
     2ea:	08 95       	ret

000002ec <Level1Item1_Enter>:
     2ec:	8a e0       	ldi	r24, 0x0A	; 10
     2ee:	91 e0       	ldi	r25, 0x01	; 1
     2f0:	0e 94 73 07 	call	0xee6	; 0xee6 <i2c_lcd_puts>
     2f4:	08 95       	ret

000002f6 <Generic_Write>:
     2f6:	00 97       	sbiw	r24, 0x00	; 0
     2f8:	19 f0       	breq	.+6      	; 0x300 <Generic_Write+0xa>
     2fa:	0e 94 73 07 	call	0xee6	; 0xee6 <i2c_lcd_puts>
     2fe:	08 95       	ret
     300:	81 e1       	ldi	r24, 0x11	; 17
     302:	91 e0       	ldi	r25, 0x01	; 1
     304:	0e 94 73 07 	call	0xee6	; 0xee6 <i2c_lcd_puts>
     308:	08 95       	ret

0000030a <viewmenu>:
     30a:	80 91 80 01 	lds	r24, 0x0180	; 0x800180 <men>
     30e:	90 91 81 01 	lds	r25, 0x0181	; 0x800181 <men+0x1>
     312:	83 30       	cpi	r24, 0x03	; 3
     314:	91 05       	cpc	r25, r1
     316:	09 f4       	brne	.+2      	; 0x31a <viewmenu+0x10>
     318:	65 c0       	rjmp	.+202    	; 0x3e4 <viewmenu+0xda>
     31a:	34 f4       	brge	.+12     	; 0x328 <viewmenu+0x1e>
     31c:	81 30       	cpi	r24, 0x01	; 1
     31e:	91 05       	cpc	r25, r1
     320:	59 f0       	breq	.+22     	; 0x338 <viewmenu+0x2e>
     322:	02 97       	sbiw	r24, 0x02	; 2
     324:	a1 f1       	breq	.+104    	; 0x38e <viewmenu+0x84>
     326:	08 95       	ret
     328:	84 30       	cpi	r24, 0x04	; 4
     32a:	91 05       	cpc	r25, r1
     32c:	09 f4       	brne	.+2      	; 0x330 <viewmenu+0x26>
     32e:	85 c0       	rjmp	.+266    	; 0x43a <__FUSE_REGION_LENGTH__+0x3a>
     330:	05 97       	sbiw	r24, 0x05	; 5
     332:	09 f4       	brne	.+2      	; 0x336 <viewmenu+0x2c>
     334:	ad c0       	rjmp	.+346    	; 0x490 <__FUSE_REGION_LENGTH__+0x90>
     336:	08 95       	ret
     338:	82 e0       	ldi	r24, 0x02	; 2
     33a:	90 e0       	ldi	r25, 0x00	; 0
     33c:	0e 94 86 07 	call	0xf0c	; 0xf0c <lcd_clrscr>
     340:	61 e0       	ldi	r22, 0x01	; 1
     342:	80 e0       	ldi	r24, 0x00	; 0
     344:	0e 94 6c 07 	call	0xed8	; 0xed8 <i2c_lcd_gotoxy>
     348:	80 91 01 01 	lds	r24, 0x0101	; 0x800101 <__data_start+0x1>
     34c:	8f 93       	push	r24
     34e:	80 91 00 01 	lds	r24, 0x0100	; 0x800100 <__data_start>
     352:	8f 93       	push	r24
     354:	80 91 81 01 	lds	r24, 0x0181	; 0x800181 <men+0x1>
     358:	8f 93       	push	r24
     35a:	80 91 80 01 	lds	r24, 0x0180	; 0x800180 <men>
     35e:	8f 93       	push	r24
     360:	89 e1       	ldi	r24, 0x19	; 25
     362:	91 e0       	ldi	r25, 0x01	; 1
     364:	9f 93       	push	r25
     366:	8f 93       	push	r24
     368:	86 e8       	ldi	r24, 0x86	; 134
     36a:	91 e0       	ldi	r25, 0x01	; 1
     36c:	9f 93       	push	r25
     36e:	8f 93       	push	r24
     370:	0e 94 3c 08 	call	0x1078	; 0x1078 <sprintf>
     374:	86 e8       	ldi	r24, 0x86	; 134
     376:	91 e0       	ldi	r25, 0x01	; 1
     378:	0e 94 73 07 	call	0xee6	; 0xee6 <i2c_lcd_puts>
     37c:	8d b7       	in	r24, 0x3d	; 61
     37e:	9e b7       	in	r25, 0x3e	; 62
     380:	08 96       	adiw	r24, 0x08	; 8
     382:	0f b6       	in	r0, 0x3f	; 63
     384:	f8 94       	cli
     386:	9e bf       	out	0x3e, r25	; 62
     388:	0f be       	out	0x3f, r0	; 63
     38a:	8d bf       	out	0x3d, r24	; 61
     38c:	08 95       	ret
     38e:	82 e0       	ldi	r24, 0x02	; 2
     390:	90 e0       	ldi	r25, 0x00	; 0
     392:	0e 94 86 07 	call	0xf0c	; 0xf0c <lcd_clrscr>
     396:	61 e0       	ldi	r22, 0x01	; 1
     398:	80 e0       	ldi	r24, 0x00	; 0
     39a:	0e 94 6c 07 	call	0xed8	; 0xed8 <i2c_lcd_gotoxy>
     39e:	80 91 01 01 	lds	r24, 0x0101	; 0x800101 <__data_start+0x1>
     3a2:	8f 93       	push	r24
     3a4:	80 91 00 01 	lds	r24, 0x0100	; 0x800100 <__data_start>
     3a8:	8f 93       	push	r24
     3aa:	80 91 81 01 	lds	r24, 0x0181	; 0x800181 <men+0x1>
     3ae:	8f 93       	push	r24
     3b0:	80 91 80 01 	lds	r24, 0x0180	; 0x800180 <men>
     3b4:	8f 93       	push	r24
     3b6:	89 e1       	ldi	r24, 0x19	; 25
     3b8:	91 e0       	ldi	r25, 0x01	; 1
     3ba:	9f 93       	push	r25
     3bc:	8f 93       	push	r24
     3be:	86 e8       	ldi	r24, 0x86	; 134
     3c0:	91 e0       	ldi	r25, 0x01	; 1
     3c2:	9f 93       	push	r25
     3c4:	8f 93       	push	r24
     3c6:	0e 94 3c 08 	call	0x1078	; 0x1078 <sprintf>
     3ca:	86 e8       	ldi	r24, 0x86	; 134
     3cc:	91 e0       	ldi	r25, 0x01	; 1
     3ce:	0e 94 73 07 	call	0xee6	; 0xee6 <i2c_lcd_puts>
     3d2:	8d b7       	in	r24, 0x3d	; 61
     3d4:	9e b7       	in	r25, 0x3e	; 62
     3d6:	08 96       	adiw	r24, 0x08	; 8
     3d8:	0f b6       	in	r0, 0x3f	; 63
     3da:	f8 94       	cli
     3dc:	9e bf       	out	0x3e, r25	; 62
     3de:	0f be       	out	0x3f, r0	; 63
     3e0:	8d bf       	out	0x3d, r24	; 61
     3e2:	08 95       	ret
     3e4:	82 e0       	ldi	r24, 0x02	; 2
     3e6:	90 e0       	ldi	r25, 0x00	; 0
     3e8:	0e 94 86 07 	call	0xf0c	; 0xf0c <lcd_clrscr>
     3ec:	61 e0       	ldi	r22, 0x01	; 1
     3ee:	80 e0       	ldi	r24, 0x00	; 0
     3f0:	0e 94 6c 07 	call	0xed8	; 0xed8 <i2c_lcd_gotoxy>
     3f4:	80 91 01 01 	lds	r24, 0x0101	; 0x800101 <__data_start+0x1>
     3f8:	8f 93       	push	r24
     3fa:	80 91 00 01 	lds	r24, 0x0100	; 0x800100 <__data_start>
     3fe:	8f 93       	push	r24
     400:	80 91 81 01 	lds	r24, 0x0181	; 0x800181 <men+0x1>
     404:	8f 93       	push	r24
     406:	80 91 80 01 	lds	r24, 0x0180	; 0x800180 <men>
     40a:	8f 93       	push	r24
     40c:	89 e1       	ldi	r24, 0x19	; 25
     40e:	91 e0       	ldi	r25, 0x01	; 1
     410:	9f 93       	push	r25
     412:	8f 93       	push	r24
     414:	86 e8       	ldi	r24, 0x86	; 134
     416:	91 e0       	ldi	r25, 0x01	; 1
     418:	9f 93       	push	r25
     41a:	8f 93       	push	r24
     41c:	0e 94 3c 08 	call	0x1078	; 0x1078 <sprintf>
     420:	86 e8       	ldi	r24, 0x86	; 134
     422:	91 e0       	ldi	r25, 0x01	; 1
     424:	0e 94 73 07 	call	0xee6	; 0xee6 <i2c_lcd_puts>
     428:	8d b7       	in	r24, 0x3d	; 61
     42a:	9e b7       	in	r25, 0x3e	; 62
     42c:	08 96       	adiw	r24, 0x08	; 8
     42e:	0f b6       	in	r0, 0x3f	; 63
     430:	f8 94       	cli
     432:	9e bf       	out	0x3e, r25	; 62
     434:	0f be       	out	0x3f, r0	; 63
     436:	8d bf       	out	0x3d, r24	; 61
     438:	08 95       	ret
     43a:	82 e0       	ldi	r24, 0x02	; 2
     43c:	90 e0       	ldi	r25, 0x00	; 0
     43e:	0e 94 86 07 	call	0xf0c	; 0xf0c <lcd_clrscr>
     442:	61 e0       	ldi	r22, 0x01	; 1
     444:	80 e0       	ldi	r24, 0x00	; 0
     446:	0e 94 6c 07 	call	0xed8	; 0xed8 <i2c_lcd_gotoxy>
     44a:	80 91 01 01 	lds	r24, 0x0101	; 0x800101 <__data_start+0x1>
     44e:	8f 93       	push	r24
     450:	80 91 00 01 	lds	r24, 0x0100	; 0x800100 <__data_start>
     454:	8f 93       	push	r24
     456:	80 91 81 01 	lds	r24, 0x0181	; 0x800181 <men+0x1>
     45a:	8f 93       	push	r24
     45c:	80 91 80 01 	lds	r24, 0x0180	; 0x800180 <men>
     460:	8f 93       	push	r24
     462:	89 e1       	ldi	r24, 0x19	; 25
     464:	91 e0       	ldi	r25, 0x01	; 1
     466:	9f 93       	push	r25
     468:	8f 93       	push	r24
     46a:	86 e8       	ldi	r24, 0x86	; 134
     46c:	91 e0       	ldi	r25, 0x01	; 1
     46e:	9f 93       	push	r25
     470:	8f 93       	push	r24
     472:	0e 94 3c 08 	call	0x1078	; 0x1078 <sprintf>
     476:	86 e8       	ldi	r24, 0x86	; 134
     478:	91 e0       	ldi	r25, 0x01	; 1
     47a:	0e 94 73 07 	call	0xee6	; 0xee6 <i2c_lcd_puts>
     47e:	8d b7       	in	r24, 0x3d	; 61
     480:	9e b7       	in	r25, 0x3e	; 62
     482:	08 96       	adiw	r24, 0x08	; 8
     484:	0f b6       	in	r0, 0x3f	; 63
     486:	f8 94       	cli
     488:	9e bf       	out	0x3e, r25	; 62
     48a:	0f be       	out	0x3f, r0	; 63
     48c:	8d bf       	out	0x3d, r24	; 61
     48e:	08 95       	ret
     490:	82 e0       	ldi	r24, 0x02	; 2
     492:	90 e0       	ldi	r25, 0x00	; 0
     494:	0e 94 86 07 	call	0xf0c	; 0xf0c <lcd_clrscr>
     498:	61 e0       	ldi	r22, 0x01	; 1
     49a:	80 e0       	ldi	r24, 0x00	; 0
     49c:	0e 94 6c 07 	call	0xed8	; 0xed8 <i2c_lcd_gotoxy>
     4a0:	80 91 01 01 	lds	r24, 0x0101	; 0x800101 <__data_start+0x1>
     4a4:	8f 93       	push	r24
     4a6:	80 91 00 01 	lds	r24, 0x0100	; 0x800100 <__data_start>
     4aa:	8f 93       	push	r24
     4ac:	80 91 81 01 	lds	r24, 0x0181	; 0x800181 <men+0x1>
     4b0:	8f 93       	push	r24
     4b2:	80 91 80 01 	lds	r24, 0x0180	; 0x800180 <men>
     4b6:	8f 93       	push	r24
     4b8:	89 e1       	ldi	r24, 0x19	; 25
     4ba:	91 e0       	ldi	r25, 0x01	; 1
     4bc:	9f 93       	push	r25
     4be:	8f 93       	push	r24
     4c0:	86 e8       	ldi	r24, 0x86	; 134
     4c2:	91 e0       	ldi	r25, 0x01	; 1
     4c4:	9f 93       	push	r25
     4c6:	8f 93       	push	r24
     4c8:	0e 94 3c 08 	call	0x1078	; 0x1078 <sprintf>
     4cc:	86 e8       	ldi	r24, 0x86	; 134
     4ce:	91 e0       	ldi	r25, 0x01	; 1
     4d0:	0e 94 73 07 	call	0xee6	; 0xee6 <i2c_lcd_puts>
     4d4:	8d b7       	in	r24, 0x3d	; 61
     4d6:	9e b7       	in	r25, 0x3e	; 62
     4d8:	08 96       	adiw	r24, 0x08	; 8
     4da:	0f b6       	in	r0, 0x3f	; 63
     4dc:	f8 94       	cli
     4de:	9e bf       	out	0x3e, r25	; 62
     4e0:	0f be       	out	0x3f, r0	; 63
     4e2:	8d bf       	out	0x3d, r24	; 61
     4e4:	08 95       	ret

000004e6 <stepm>:
     4e6:	00 97       	sbiw	r24, 0x00	; 0
     4e8:	09 f0       	breq	.+2      	; 0x4ec <stepm+0x6>
     4ea:	40 c0       	rjmp	.+128    	; 0x56c <stepm+0x86>
     4ec:	1d 99       	sbic	0x03, 5	; 3
     4ee:	fe cf       	rjmp	.-4      	; 0x4ec <stepm+0x6>
     4f0:	80 91 7e 01 	lds	r24, 0x017E	; 0x80017e <__data_end>
     4f4:	90 91 7f 01 	lds	r25, 0x017F	; 0x80017f <__data_end+0x1>
     4f8:	81 30       	cpi	r24, 0x01	; 1
     4fa:	91 05       	cpc	r25, r1
     4fc:	c1 f0       	breq	.+48     	; 0x52e <stepm+0x48>
     4fe:	82 30       	cpi	r24, 0x02	; 2
     500:	91 05       	cpc	r25, r1
     502:	39 f1       	breq	.+78     	; 0x552 <stepm+0x6c>
     504:	89 2b       	or	r24, r25
     506:	09 f0       	breq	.+2      	; 0x50a <stepm+0x24>
     508:	d1 c0       	rjmp	.+418    	; 0x6ac <stepm+0x1c6>
     50a:	81 e0       	ldi	r24, 0x01	; 1
     50c:	88 b9       	out	0x08, r24	; 8
     50e:	80 91 7e 01 	lds	r24, 0x017E	; 0x80017e <__data_end>
     512:	90 91 7f 01 	lds	r25, 0x017F	; 0x80017f <__data_end+0x1>
     516:	01 96       	adiw	r24, 0x01	; 1
     518:	90 93 7f 01 	sts	0x017F, r25	; 0x80017f <__data_end+0x1>
     51c:	80 93 7e 01 	sts	0x017E, r24	; 0x80017e <__data_end>
     520:	8f e8       	ldi	r24, 0x8F	; 143
     522:	91 e0       	ldi	r25, 0x01	; 1
     524:	01 97       	sbiw	r24, 0x01	; 1
     526:	f1 f7       	brne	.-4      	; 0x524 <stepm+0x3e>
     528:	00 c0       	rjmp	.+0      	; 0x52a <stepm+0x44>
     52a:	00 00       	nop
     52c:	08 95       	ret
     52e:	82 e0       	ldi	r24, 0x02	; 2
     530:	88 b9       	out	0x08, r24	; 8
     532:	80 91 7e 01 	lds	r24, 0x017E	; 0x80017e <__data_end>
     536:	90 91 7f 01 	lds	r25, 0x017F	; 0x80017f <__data_end+0x1>
     53a:	01 96       	adiw	r24, 0x01	; 1
     53c:	90 93 7f 01 	sts	0x017F, r25	; 0x80017f <__data_end+0x1>
     540:	80 93 7e 01 	sts	0x017E, r24	; 0x80017e <__data_end>
     544:	af e8       	ldi	r26, 0x8F	; 143
     546:	b1 e0       	ldi	r27, 0x01	; 1
     548:	11 97       	sbiw	r26, 0x01	; 1
     54a:	f1 f7       	brne	.-4      	; 0x548 <stepm+0x62>
     54c:	00 c0       	rjmp	.+0      	; 0x54e <stepm+0x68>
     54e:	00 00       	nop
     550:	08 95       	ret
     552:	84 e0       	ldi	r24, 0x04	; 4
     554:	88 b9       	out	0x08, r24	; 8
     556:	10 92 7f 01 	sts	0x017F, r1	; 0x80017f <__data_end+0x1>
     55a:	10 92 7e 01 	sts	0x017E, r1	; 0x80017e <__data_end>
     55e:	8f e8       	ldi	r24, 0x8F	; 143
     560:	91 e0       	ldi	r25, 0x01	; 1
     562:	01 97       	sbiw	r24, 0x01	; 1
     564:	f1 f7       	brne	.-4      	; 0x562 <stepm+0x7c>
     566:	00 c0       	rjmp	.+0      	; 0x568 <stepm+0x82>
     568:	00 00       	nop
     56a:	08 95       	ret
     56c:	18 16       	cp	r1, r24
     56e:	19 06       	cpc	r1, r25
     570:	64 f0       	brlt	.+24     	; 0x58a <stepm+0xa4>
     572:	ac 01       	movw	r20, r24
     574:	99 23       	and	r25, r25
     576:	24 f4       	brge	.+8      	; 0x580 <stepm+0x9a>
     578:	44 27       	eor	r20, r20
     57a:	55 27       	eor	r21, r21
     57c:	48 1b       	sub	r20, r24
     57e:	59 0b       	sbc	r21, r25
     580:	14 16       	cp	r1, r20
     582:	15 06       	cpc	r1, r21
     584:	0c f4       	brge	.+2      	; 0x588 <stepm+0xa2>
     586:	4a c0       	rjmp	.+148    	; 0x61c <stepm+0x136>
     588:	08 95       	ret
     58a:	20 e0       	ldi	r18, 0x00	; 0
     58c:	30 e0       	ldi	r19, 0x00	; 0
     58e:	e2 e0       	ldi	r30, 0x02	; 2
     590:	74 e0       	ldi	r23, 0x04	; 4
     592:	61 e0       	ldi	r22, 0x01	; 1
     594:	33 9b       	sbis	0x06, 3	; 6
     596:	3b c0       	rjmp	.+118    	; 0x60e <stepm+0x128>
     598:	40 91 7e 01 	lds	r20, 0x017E	; 0x80017e <__data_end>
     59c:	50 91 7f 01 	lds	r21, 0x017F	; 0x80017f <__data_end+0x1>
     5a0:	41 30       	cpi	r20, 0x01	; 1
     5a2:	51 05       	cpc	r21, r1
     5a4:	b9 f0       	breq	.+46     	; 0x5d4 <stepm+0xee>
     5a6:	42 30       	cpi	r20, 0x02	; 2
     5a8:	51 05       	cpc	r21, r1
     5aa:	31 f1       	breq	.+76     	; 0x5f8 <stepm+0x112>
     5ac:	45 2b       	or	r20, r21
     5ae:	79 f5       	brne	.+94     	; 0x60e <stepm+0x128>
     5b0:	68 b9       	out	0x08, r22	; 8
     5b2:	40 91 7e 01 	lds	r20, 0x017E	; 0x80017e <__data_end>
     5b6:	50 91 7f 01 	lds	r21, 0x017F	; 0x80017f <__data_end+0x1>
     5ba:	4f 5f       	subi	r20, 0xFF	; 255
     5bc:	5f 4f       	sbci	r21, 0xFF	; 255
     5be:	50 93 7f 01 	sts	0x017F, r21	; 0x80017f <__data_end+0x1>
     5c2:	40 93 7e 01 	sts	0x017E, r20	; 0x80017e <__data_end>
     5c6:	af e8       	ldi	r26, 0x8F	; 143
     5c8:	b1 e0       	ldi	r27, 0x01	; 1
     5ca:	11 97       	sbiw	r26, 0x01	; 1
     5cc:	f1 f7       	brne	.-4      	; 0x5ca <stepm+0xe4>
     5ce:	00 c0       	rjmp	.+0      	; 0x5d0 <stepm+0xea>
     5d0:	00 00       	nop
     5d2:	1d c0       	rjmp	.+58     	; 0x60e <stepm+0x128>
     5d4:	e8 b9       	out	0x08, r30	; 8
     5d6:	40 91 7e 01 	lds	r20, 0x017E	; 0x80017e <__data_end>
     5da:	50 91 7f 01 	lds	r21, 0x017F	; 0x80017f <__data_end+0x1>
     5de:	4f 5f       	subi	r20, 0xFF	; 255
     5e0:	5f 4f       	sbci	r21, 0xFF	; 255
     5e2:	50 93 7f 01 	sts	0x017F, r21	; 0x80017f <__data_end+0x1>
     5e6:	40 93 7e 01 	sts	0x017E, r20	; 0x80017e <__data_end>
     5ea:	af e8       	ldi	r26, 0x8F	; 143
     5ec:	b1 e0       	ldi	r27, 0x01	; 1
     5ee:	11 97       	sbiw	r26, 0x01	; 1
     5f0:	f1 f7       	brne	.-4      	; 0x5ee <stepm+0x108>
     5f2:	00 c0       	rjmp	.+0      	; 0x5f4 <stepm+0x10e>
     5f4:	00 00       	nop
     5f6:	0b c0       	rjmp	.+22     	; 0x60e <stepm+0x128>
     5f8:	78 b9       	out	0x08, r23	; 8
     5fa:	10 92 7f 01 	sts	0x017F, r1	; 0x80017f <__data_end+0x1>
     5fe:	10 92 7e 01 	sts	0x017E, r1	; 0x80017e <__data_end>
     602:	af e8       	ldi	r26, 0x8F	; 143
     604:	b1 e0       	ldi	r27, 0x01	; 1
     606:	11 97       	sbiw	r26, 0x01	; 1
     608:	f1 f7       	brne	.-4      	; 0x606 <stepm+0x120>
     60a:	00 c0       	rjmp	.+0      	; 0x60c <stepm+0x126>
     60c:	00 00       	nop
     60e:	2f 5f       	subi	r18, 0xFF	; 255
     610:	3f 4f       	sbci	r19, 0xFF	; 255
     612:	28 17       	cp	r18, r24
     614:	39 07       	cpc	r19, r25
     616:	09 f0       	breq	.+2      	; 0x61a <stepm+0x134>
     618:	bd cf       	rjmp	.-134    	; 0x594 <stepm+0xae>
     61a:	08 95       	ret
     61c:	80 e0       	ldi	r24, 0x00	; 0
     61e:	90 e0       	ldi	r25, 0x00	; 0
     620:	e2 e0       	ldi	r30, 0x02	; 2
     622:	71 e0       	ldi	r23, 0x01	; 1
     624:	64 e0       	ldi	r22, 0x04	; 4
     626:	1d 9b       	sbis	0x03, 5	; 3
     628:	3c c0       	rjmp	.+120    	; 0x6a2 <stepm+0x1bc>
     62a:	20 91 7e 01 	lds	r18, 0x017E	; 0x80017e <__data_end>
     62e:	30 91 7f 01 	lds	r19, 0x017F	; 0x80017f <__data_end+0x1>
     632:	21 30       	cpi	r18, 0x01	; 1
     634:	31 05       	cpc	r19, r1
     636:	91 f0       	breq	.+36     	; 0x65c <stepm+0x176>
     638:	22 30       	cpi	r18, 0x02	; 2
     63a:	31 05       	cpc	r19, r1
     63c:	19 f0       	breq	.+6      	; 0x644 <stepm+0x15e>
     63e:	23 2b       	or	r18, r19
     640:	81 f5       	brne	.+96     	; 0x6a2 <stepm+0x1bc>
     642:	1e c0       	rjmp	.+60     	; 0x680 <stepm+0x19a>
     644:	78 b9       	out	0x08, r23	; 8
     646:	10 92 7f 01 	sts	0x017F, r1	; 0x80017f <__data_end+0x1>
     64a:	10 92 7e 01 	sts	0x017E, r1	; 0x80017e <__data_end>
     64e:	af e8       	ldi	r26, 0x8F	; 143
     650:	b1 e0       	ldi	r27, 0x01	; 1
     652:	11 97       	sbiw	r26, 0x01	; 1
     654:	f1 f7       	brne	.-4      	; 0x652 <stepm+0x16c>
     656:	00 c0       	rjmp	.+0      	; 0x658 <stepm+0x172>
     658:	00 00       	nop
     65a:	23 c0       	rjmp	.+70     	; 0x6a2 <stepm+0x1bc>
     65c:	e8 b9       	out	0x08, r30	; 8
     65e:	20 91 7e 01 	lds	r18, 0x017E	; 0x80017e <__data_end>
     662:	30 91 7f 01 	lds	r19, 0x017F	; 0x80017f <__data_end+0x1>
     666:	2f 5f       	subi	r18, 0xFF	; 255
     668:	3f 4f       	sbci	r19, 0xFF	; 255
     66a:	30 93 7f 01 	sts	0x017F, r19	; 0x80017f <__data_end+0x1>
     66e:	20 93 7e 01 	sts	0x017E, r18	; 0x80017e <__data_end>
     672:	af e8       	ldi	r26, 0x8F	; 143
     674:	b1 e0       	ldi	r27, 0x01	; 1
     676:	11 97       	sbiw	r26, 0x01	; 1
     678:	f1 f7       	brne	.-4      	; 0x676 <stepm+0x190>
     67a:	00 c0       	rjmp	.+0      	; 0x67c <stepm+0x196>
     67c:	00 00       	nop
     67e:	11 c0       	rjmp	.+34     	; 0x6a2 <stepm+0x1bc>
     680:	68 b9       	out	0x08, r22	; 8
     682:	20 91 7e 01 	lds	r18, 0x017E	; 0x80017e <__data_end>
     686:	30 91 7f 01 	lds	r19, 0x017F	; 0x80017f <__data_end+0x1>
     68a:	2f 5f       	subi	r18, 0xFF	; 255
     68c:	3f 4f       	sbci	r19, 0xFF	; 255
     68e:	30 93 7f 01 	sts	0x017F, r19	; 0x80017f <__data_end+0x1>
     692:	20 93 7e 01 	sts	0x017E, r18	; 0x80017e <__data_end>
     696:	af e8       	ldi	r26, 0x8F	; 143
     698:	b1 e0       	ldi	r27, 0x01	; 1
     69a:	11 97       	sbiw	r26, 0x01	; 1
     69c:	f1 f7       	brne	.-4      	; 0x69a <stepm+0x1b4>
     69e:	00 c0       	rjmp	.+0      	; 0x6a0 <stepm+0x1ba>
     6a0:	00 00       	nop
     6a2:	01 96       	adiw	r24, 0x01	; 1
     6a4:	84 17       	cp	r24, r20
     6a6:	95 07       	cpc	r25, r21
     6a8:	09 f0       	breq	.+2      	; 0x6ac <stepm+0x1c6>
     6aa:	bd cf       	rjmp	.-134    	; 0x626 <stepm+0x140>
     6ac:	08 95       	ret

000006ae <GetButtonPress>:
     6ae:	83 b1       	in	r24, 0x03	; 3
     6b0:	84 ff       	sbrs	r24, 4
     6b2:	0a c0       	rjmp	.+20     	; 0x6c8 <GetButtonPress+0x1a>
     6b4:	81 ff       	sbrs	r24, 1
     6b6:	0a c0       	rjmp	.+20     	; 0x6cc <GetButtonPress+0x1e>
     6b8:	82 ff       	sbrs	r24, 2
     6ba:	0a c0       	rjmp	.+20     	; 0x6d0 <GetButtonPress+0x22>
     6bc:	83 ff       	sbrs	r24, 3
     6be:	0a c0       	rjmp	.+20     	; 0x6d4 <GetButtonPress+0x26>
     6c0:	80 ff       	sbrs	r24, 0
     6c2:	0a c0       	rjmp	.+20     	; 0x6d8 <GetButtonPress+0x2a>
     6c4:	80 e0       	ldi	r24, 0x00	; 0
     6c6:	08 95       	ret
     6c8:	85 e0       	ldi	r24, 0x05	; 5
     6ca:	08 95       	ret
     6cc:	81 e0       	ldi	r24, 0x01	; 1
     6ce:	08 95       	ret
     6d0:	82 e0       	ldi	r24, 0x02	; 2
     6d2:	08 95       	ret
     6d4:	83 e0       	ldi	r24, 0x03	; 3
     6d6:	08 95       	ret
     6d8:	84 e0       	ldi	r24, 0x04	; 4
     6da:	08 95       	ret

000006dc <__vector_1>:
     6dc:	1f 92       	push	r1
     6de:	0f 92       	push	r0
     6e0:	0f b6       	in	r0, 0x3f	; 63
     6e2:	0f 92       	push	r0
     6e4:	11 24       	eor	r1, r1
     6e6:	8f 93       	push	r24
     6e8:	9f 93       	push	r25
     6ea:	f8 94       	cli
     6ec:	80 91 82 01 	lds	r24, 0x0182	; 0x800182 <j>
     6f0:	90 91 83 01 	lds	r25, 0x0183	; 0x800183 <j+0x1>
     6f4:	01 96       	adiw	r24, 0x01	; 1
     6f6:	90 93 83 01 	sts	0x0183, r25	; 0x800183 <j+0x1>
     6fa:	80 93 82 01 	sts	0x0182, r24	; 0x800182 <j>
     6fe:	78 94       	sei
     700:	9f 91       	pop	r25
     702:	8f 91       	pop	r24
     704:	0f 90       	pop	r0
     706:	0f be       	out	0x3f, r0	; 63
     708:	0f 90       	pop	r0
     70a:	1f 90       	pop	r1
     70c:	18 95       	reti

0000070e <__vector_11>:
     70e:	1f 92       	push	r1
     710:	0f 92       	push	r0
     712:	0f b6       	in	r0, 0x3f	; 63
     714:	0f 92       	push	r0
     716:	11 24       	eor	r1, r1
     718:	2f 93       	push	r18
     71a:	3f 93       	push	r19
     71c:	4f 93       	push	r20
     71e:	5f 93       	push	r21
     720:	6f 93       	push	r22
     722:	7f 93       	push	r23
     724:	8f 93       	push	r24
     726:	9f 93       	push	r25
     728:	af 93       	push	r26
     72a:	bf 93       	push	r27
     72c:	cf 93       	push	r28
     72e:	df 93       	push	r29
     730:	ef 93       	push	r30
     732:	ff 93       	push	r31
     734:	f8 94       	cli
     736:	80 91 00 01 	lds	r24, 0x0100	; 0x800100 <__data_start>
     73a:	90 91 01 01 	lds	r25, 0x0101	; 0x800101 <__data_start+0x1>
     73e:	01 96       	adiw	r24, 0x01	; 1
     740:	90 93 01 01 	sts	0x0101, r25	; 0x800101 <__data_start+0x1>
     744:	80 93 00 01 	sts	0x0100, r24	; 0x800100 <__data_start>
     748:	48 9b       	sbis	0x09, 0	; 9
     74a:	02 c0       	rjmp	.+4      	; 0x750 <__vector_11+0x42>
     74c:	58 98       	cbi	0x0b, 0	; 11
     74e:	01 c0       	rjmp	.+2      	; 0x752 <__vector_11+0x44>
     750:	58 9a       	sbi	0x0b, 0	; 11
     752:	80 91 00 01 	lds	r24, 0x0100	; 0x800100 <__data_start>
     756:	90 91 01 01 	lds	r25, 0x0101	; 0x800101 <__data_start+0x1>
     75a:	0b 97       	sbiw	r24, 0x0b	; 11
     75c:	74 f1       	brlt	.+92     	; 0x7ba <__vector_11+0xac>
     75e:	10 92 01 01 	sts	0x0101, r1	; 0x800101 <__data_start+0x1>
     762:	10 92 00 01 	sts	0x0100, r1	; 0x800100 <__data_start>
     766:	81 e0       	ldi	r24, 0x01	; 1
     768:	90 e0       	ldi	r25, 0x00	; 0
     76a:	0e 94 86 07 	call	0xf0c	; 0xf0c <lcd_clrscr>
     76e:	60 e0       	ldi	r22, 0x00	; 0
     770:	80 e0       	ldi	r24, 0x00	; 0
     772:	0e 94 6c 07 	call	0xed8	; 0xed8 <i2c_lcd_gotoxy>
     776:	80 91 01 01 	lds	r24, 0x0101	; 0x800101 <__data_start+0x1>
     77a:	8f 93       	push	r24
     77c:	80 91 00 01 	lds	r24, 0x0100	; 0x800100 <__data_start>
     780:	8f 93       	push	r24
     782:	80 91 83 01 	lds	r24, 0x0183	; 0x800183 <j+0x1>
     786:	8f 93       	push	r24
     788:	80 91 82 01 	lds	r24, 0x0182	; 0x800182 <j>
     78c:	8f 93       	push	r24
     78e:	83 e2       	ldi	r24, 0x23	; 35
     790:	91 e0       	ldi	r25, 0x01	; 1
     792:	9f 93       	push	r25
     794:	8f 93       	push	r24
     796:	86 e8       	ldi	r24, 0x86	; 134
     798:	91 e0       	ldi	r25, 0x01	; 1
     79a:	9f 93       	push	r25
     79c:	8f 93       	push	r24
     79e:	0e 94 3c 08 	call	0x1078	; 0x1078 <sprintf>
     7a2:	86 e8       	ldi	r24, 0x86	; 134
     7a4:	91 e0       	ldi	r25, 0x01	; 1
     7a6:	0e 94 73 07 	call	0xee6	; 0xee6 <i2c_lcd_puts>
     7aa:	8d b7       	in	r24, 0x3d	; 61
     7ac:	9e b7       	in	r25, 0x3e	; 62
     7ae:	08 96       	adiw	r24, 0x08	; 8
     7b0:	0f b6       	in	r0, 0x3f	; 63
     7b2:	f8 94       	cli
     7b4:	9e bf       	out	0x3e, r25	; 62
     7b6:	0f be       	out	0x3f, r0	; 63
     7b8:	8d bf       	out	0x3d, r24	; 61
     7ba:	80 91 82 01 	lds	r24, 0x0182	; 0x800182 <j>
     7be:	90 91 83 01 	lds	r25, 0x0183	; 0x800183 <j+0x1>
     7c2:	ec 01       	movw	r28, r24
     7c4:	ec 97       	sbiw	r28, 0x3c	; 60
     7c6:	10 92 83 01 	sts	0x0183, r1	; 0x800183 <j+0x1>
     7ca:	10 92 82 01 	sts	0x0182, r1	; 0x800182 <j>
     7ce:	cf 97       	sbiw	r24, 0x3f	; 63
     7d0:	07 97       	sbiw	r24, 0x07	; 7
     7d2:	20 f4       	brcc	.+8      	; 0x7dc <__vector_11+0xce>
     7d4:	8e ec       	ldi	r24, 0xCE	; 206
     7d6:	9f ef       	ldi	r25, 0xFF	; 255
     7d8:	0e 94 73 02 	call	0x4e6	; 0x4e6 <stepm>
     7dc:	ce 01       	movw	r24, r28
     7de:	0a 97       	sbiw	r24, 0x0a	; 10
     7e0:	44 97       	sbiw	r24, 0x14	; 20
     7e2:	20 f4       	brcc	.+8      	; 0x7ec <__vector_11+0xde>
     7e4:	8c e9       	ldi	r24, 0x9C	; 156
     7e6:	9f ef       	ldi	r25, 0xFF	; 255
     7e8:	0e 94 73 02 	call	0x4e6	; 0x4e6 <stepm>
     7ec:	ce 31       	cpi	r28, 0x1E	; 30
     7ee:	d1 05       	cpc	r29, r1
     7f0:	24 f0       	brlt	.+8      	; 0x7fa <__vector_11+0xec>
     7f2:	86 e0       	ldi	r24, 0x06	; 6
     7f4:	9f ef       	ldi	r25, 0xFF	; 255
     7f6:	0e 94 73 02 	call	0x4e6	; 0x4e6 <stepm>
     7fa:	c3 3d       	cpi	r28, 0xD3	; 211
     7fc:	df 4f       	sbci	r29, 0xFF	; 255
     7fe:	24 f0       	brlt	.+8      	; 0x808 <__vector_11+0xfa>
     800:	80 e0       	ldi	r24, 0x00	; 0
     802:	90 e0       	ldi	r25, 0x00	; 0
     804:	0e 94 73 02 	call	0x4e6	; 0x4e6 <stepm>
     808:	78 94       	sei
     80a:	ff 91       	pop	r31
     80c:	ef 91       	pop	r30
     80e:	df 91       	pop	r29
     810:	cf 91       	pop	r28
     812:	bf 91       	pop	r27
     814:	af 91       	pop	r26
     816:	9f 91       	pop	r25
     818:	8f 91       	pop	r24
     81a:	7f 91       	pop	r23
     81c:	6f 91       	pop	r22
     81e:	5f 91       	pop	r21
     820:	4f 91       	pop	r20
     822:	3f 91       	pop	r19
     824:	2f 91       	pop	r18
     826:	0f 90       	pop	r0
     828:	0f be       	out	0x3f, r0	; 63
     82a:	0f 90       	pop	r0
     82c:	1f 90       	pop	r1
     82e:	18 95       	reti

00000830 <main>:

int main(void)
{
	DDRC = 0b00000111; // DDRB >> 1-out, 0-in
     830:	87 e0       	ldi	r24, 0x07	; 7
     832:	87 b9       	out	0x07, r24	; 7
	DDRB = 0b00000000; // DDRB >> 1-out, 0-in
     834:	14 b8       	out	0x04, r1	; 4
	DDRD = 0b00000011;
     836:	c3 e0       	ldi	r28, 0x03	; 3
     838:	ca b9       	out	0x0a, r28	; 10
	PORTB = 0b00011111;
     83a:	8f e1       	ldi	r24, 0x1F	; 31
     83c:	85 b9       	out	0x05, r24	; 5
	PORTC = 0b00100000;
     83e:	80 e2       	ldi	r24, 0x20	; 32
     840:	88 b9       	out	0x08, r24	; 8
	PORTD = 0b00000010;
     842:	d2 e0       	ldi	r29, 0x02	; 2
     844:	db b9       	out	0x0b, r29	; 11
	
		//KBD_init();
	i2c_lcd_init();//инициализация LCD
     846:	0e 94 f2 06 	call	0xde4	; 0xde4 <i2c_lcd_init>
	i2c_lcd_clr();
     84a:	0e 94 82 07 	call	0xf04	; 0xf04 <i2c_lcd_clr>
	i2c_lcd_gotoxy(0,0);
     84e:	60 e0       	ldi	r22, 0x00	; 0
     850:	80 e0       	ldi	r24, 0x00	; 0
     852:	0e 94 6c 07 	call	0xed8	; 0xed8 <i2c_lcd_gotoxy>
	
	//char light = 0;
	
	
	// TIMSK0 = 0x00; // timer interrupt sources
	 EIMSK= (1<<INT0)|(1<<INT1); //разрешение прерывания на INT0
     856:	cd bb       	out	0x1d, r28	; 29
	 MCUCR |=(1<<ISC01)|(1<<ISC00); //регистр настройки прерываний на выводах INT0 и INT1
     858:	85 b7       	in	r24, 0x35	; 53
     85a:	83 60       	ori	r24, 0x03	; 3
     85c:	85 bf       	out	0x35, r24	; 53
	 
	 
	 TCCR1B = (0<<CS12)|(1<<CS11)|(1<<CS10);
     85e:	c0 93 81 00 	sts	0x0081, r28	; 0x800081 <__TEXT_REGION_LENGTH__+0x7e0081>
	 //TCNT1 = 0xFB1E;
	 //OCR1A =0x4E20;
	 OCR1A = 0xfb1e;
     862:	8e e1       	ldi	r24, 0x1E	; 30
     864:	9b ef       	ldi	r25, 0xFB	; 251
     866:	90 93 89 00 	sts	0x0089, r25	; 0x800089 <__TEXT_REGION_LENGTH__+0x7e0089>
     86a:	80 93 88 00 	sts	0x0088, r24	; 0x800088 <__TEXT_REGION_LENGTH__+0x7e0088>
	 TIMSK1=(1<<OCIE1A);
     86e:	d0 93 6f 00 	sts	0x006F, r29	; 0x80006f <__TEXT_REGION_LENGTH__+0x7e006f>
	 sei();
     872:	78 94       	sei
	 
	 //
	 	/* Set up the default menu text write callback, and navigate to an absolute menu item entry. */
	Menu_SetGenericWriteCallback(Generic_Write);
     874:	8b e7       	ldi	r24, 0x7B	; 123
     876:	91 e0       	ldi	r25, 0x01	; 1
     878:	0e 94 d7 07 	call	0xfae	; 0xfae <Menu_SetGenericWriteCallback>
	Menu_Navigate(&Menu_1);
     87c:	89 e4       	ldi	r24, 0x49	; 73
     87e:	92 e0       	ldi	r25, 0x02	; 2
     880:	0e 94 b4 07 	call	0xf68	; 0xf68 <Menu_Navigate>
	 
	 //
    while(1)
    {	//switch (readKey())
		switch (GetButtonPress())
     884:	0e 94 57 03 	call	0x6ae	; 0x6ae <GetButtonPress>
     888:	83 30       	cpi	r24, 0x03	; 3
     88a:	29 f1       	breq	.+74     	; 0x8d6 <main+0xa6>
     88c:	28 f4       	brcc	.+10     	; 0x898 <main+0x68>
     88e:	81 30       	cpi	r24, 0x01	; 1
     890:	49 f0       	breq	.+18     	; 0x8a4 <main+0x74>
     892:	82 30       	cpi	r24, 0x02	; 2
     894:	a1 f0       	breq	.+40     	; 0x8be <main+0x8e>
     896:	40 c0       	rjmp	.+128    	; 0x918 <__stack+0x19>
     898:	84 30       	cpi	r24, 0x04	; 4
     89a:	51 f1       	breq	.+84     	; 0x8f0 <main+0xc0>
     89c:	85 30       	cpi	r24, 0x05	; 5
     89e:	09 f4       	brne	.+2      	; 0x8a2 <main+0x72>
     8a0:	34 c0       	rjmp	.+104    	; 0x90a <__stack+0xb>
     8a2:	3a c0       	rjmp	.+116    	; 0x918 <__stack+0x19>
	    {
		    case BUTTON_UP:
			i2c_lcd_puts("up");
     8a4:	85 e6       	ldi	r24, 0x65	; 101
     8a6:	91 e0       	ldi	r25, 0x01	; 1
     8a8:	0e 94 73 07 	call	0xee6	; 0xee6 <i2c_lcd_puts>
		    Menu_Navigate(MENU_PREVIOUS);
     8ac:	0e 94 af 07 	call	0xf5e	; 0xf5e <Menu_GetCurrentMenu>
     8b0:	02 96       	adiw	r24, 0x02	; 2
     8b2:	fc 01       	movw	r30, r24
     8b4:	85 91       	lpm	r24, Z+
     8b6:	94 91       	lpm	r25, Z
     8b8:	0e 94 b4 07 	call	0xf68	; 0xf68 <Menu_Navigate>
			//_delay_ms(2000);
		    break;
     8bc:	32 c0       	rjmp	.+100    	; 0x922 <__stack+0x23>
		    case BUTTON_DOWN:
			i2c_lcd_puts("down");
     8be:	88 e6       	ldi	r24, 0x68	; 104
     8c0:	91 e0       	ldi	r25, 0x01	; 1
     8c2:	0e 94 73 07 	call	0xee6	; 0xee6 <i2c_lcd_puts>
		    Menu_Navigate(MENU_NEXT);//_delay_ms(2000);
     8c6:	0e 94 af 07 	call	0xf5e	; 0xf5e <Menu_GetCurrentMenu>
     8ca:	fc 01       	movw	r30, r24
     8cc:	85 91       	lpm	r24, Z+
     8ce:	94 91       	lpm	r25, Z
     8d0:	0e 94 b4 07 	call	0xf68	; 0xf68 <Menu_Navigate>
		    break;
     8d4:	26 c0       	rjmp	.+76     	; 0x922 <__stack+0x23>
		    case BUTTON_LEFT:
			i2c_lcd_puts("left");
     8d6:	8d e6       	ldi	r24, 0x6D	; 109
     8d8:	91 e0       	ldi	r25, 0x01	; 1
     8da:	0e 94 73 07 	call	0xee6	; 0xee6 <i2c_lcd_puts>
		    Menu_Navigate(MENU_PARENT);//_delay_ms(2000);
     8de:	0e 94 af 07 	call	0xf5e	; 0xf5e <Menu_GetCurrentMenu>
     8e2:	04 96       	adiw	r24, 0x04	; 4
     8e4:	fc 01       	movw	r30, r24
     8e6:	85 91       	lpm	r24, Z+
     8e8:	94 91       	lpm	r25, Z
     8ea:	0e 94 b4 07 	call	0xf68	; 0xf68 <Menu_Navigate>
		    break;
     8ee:	19 c0       	rjmp	.+50     	; 0x922 <__stack+0x23>
		    case BUTTON_RIGHT:
			i2c_lcd_puts("right");
     8f0:	82 e7       	ldi	r24, 0x72	; 114
     8f2:	91 e0       	ldi	r25, 0x01	; 1
     8f4:	0e 94 73 07 	call	0xee6	; 0xee6 <i2c_lcd_puts>
		    Menu_Navigate(MENU_CHILD);//_delay_ms(2000);
     8f8:	0e 94 af 07 	call	0xf5e	; 0xf5e <Menu_GetCurrentMenu>
     8fc:	06 96       	adiw	r24, 0x06	; 6
     8fe:	fc 01       	movw	r30, r24
     900:	85 91       	lpm	r24, Z+
     902:	94 91       	lpm	r25, Z
     904:	0e 94 b4 07 	call	0xf68	; 0xf68 <Menu_Navigate>
		    break;
     908:	0c c0       	rjmp	.+24     	; 0x922 <__stack+0x23>
		    case BUTTON_ENTER:
			i2c_lcd_puts("enter");
     90a:	88 e7       	ldi	r24, 0x78	; 120
     90c:	91 e0       	ldi	r25, 0x01	; 1
     90e:	0e 94 73 07 	call	0xee6	; 0xee6 <i2c_lcd_puts>
		    Menu_EnterCurrentItem();//_delay_ms(2000);
     912:	0e 94 e2 07 	call	0xfc4	; 0xfc4 <Menu_EnterCurrentItem>
		    break;
     916:	05 c0       	rjmp	.+10     	; 0x922 <__stack+0x23>
		    default:
		    {/*i2c_lcd_clr();dispMenu();*/
				i2c_lcd_puts(Menu_GetCurrentMenu()->Text);
     918:	0e 94 af 07 	call	0xf5e	; 0xf5e <Menu_GetCurrentMenu>
     91c:	0c 96       	adiw	r24, 0x0c	; 12
     91e:	0e 94 73 07 	call	0xee6	; 0xee6 <i2c_lcd_puts>
		    }
		    break;
	    }
		
		
		viewmenu();
     922:	0e 94 85 01 	call	0x30a	; 0x30a <viewmenu>
		
		
		
		i2c_lcd_gotoxy(0,0);
     926:	60 e0       	ldi	r22, 0x00	; 0
     928:	80 e0       	ldi	r24, 0x00	; 0
     92a:	0e 94 6c 07 	call	0xed8	; 0xed8 <i2c_lcd_gotoxy>
	#else
		//round up by default
		__ticks_dc = (uint32_t)(ceil(fabs(__tmp)));
	#endif

	__builtin_avr_delay_cycles(__ticks_dc);
     92e:	2f ef       	ldi	r18, 0xFF	; 255
     930:	87 ea       	ldi	r24, 0xA7	; 167
     932:	91 e6       	ldi	r25, 0x61	; 97
     934:	21 50       	subi	r18, 0x01	; 1
     936:	80 40       	sbci	r24, 0x00	; 0
     938:	90 40       	sbci	r25, 0x00	; 0
     93a:	e1 f7       	brne	.-8      	; 0x934 <__stack+0x35>
     93c:	00 c0       	rjmp	.+0      	; 0x93e <__stack+0x3f>
     93e:	00 00       	nop
     940:	a1 cf       	rjmp	.-190    	; 0x884 <main+0x54>

00000942 <DoNothing>:
	default:	break;
	}
}
 
void DoNothing(void)								// Функция пустышка, затыкать несуществующие ссылки
{
     942:	08 95       	ret

00000944 <__vector_24>:
u08 	WorkLog[100];				// Лог пишем сюда
u08		WorkIndex=0;			// Индекс лога
 
 
ISR(TWI_vect)					// Прерывание TWI Тут наше все.
{
     944:	1f 92       	push	r1
     946:	0f 92       	push	r0
     948:	0f b6       	in	r0, 0x3f	; 63
     94a:	0f 92       	push	r0
     94c:	11 24       	eor	r1, r1
     94e:	2f 93       	push	r18
     950:	3f 93       	push	r19
     952:	4f 93       	push	r20
     954:	5f 93       	push	r21
     956:	6f 93       	push	r22
     958:	7f 93       	push	r23
     95a:	8f 93       	push	r24
     95c:	9f 93       	push	r25
     95e:	af 93       	push	r26
     960:	bf 93       	push	r27
     962:	ef 93       	push	r30
     964:	ff 93       	push	r31
		WorkLog[WorkIndex]= 0xFF;	// Если статус нулевой то вписываем FF
		WorkIndex++;
		}
}
*/
switch(TWSR & 0xF8)				// Отсекаем биты прескалера
     966:	80 91 b9 00 	lds	r24, 0x00B9	; 0x8000b9 <__TEXT_REGION_LENGTH__+0x7e00b9>
     96a:	e8 2f       	mov	r30, r24
     96c:	e8 7f       	andi	r30, 0xF8	; 248
     96e:	8e 2f       	mov	r24, r30
     970:	90 e0       	ldi	r25, 0x00	; 0
     972:	89 3c       	cpi	r24, 0xC9	; 201
     974:	91 05       	cpc	r25, r1
     976:	08 f0       	brcs	.+2      	; 0x97a <__vector_24+0x36>
     978:	a9 c1       	rjmp	.+850    	; 0xccc <__vector_24+0x388>
     97a:	fc 01       	movw	r30, r24
     97c:	ec 5c       	subi	r30, 0xCC	; 204
     97e:	ff 4f       	sbci	r31, 0xFF	; 255
     980:	0c 94 36 08 	jmp	0x106c	; 0x106c <__tablejump2__>
	{
	case 0x00:				// Bus Fail (автобус сломался)
			{
			i2c_Do |= i2c_ERR_BF;
     984:	80 91 1c 02 	lds	r24, 0x021C	; 0x80021c <i2c_Do>
     988:	81 60       	ori	r24, 0x01	; 1
     98a:	80 93 1c 02 	sts	0x021C, r24	; 0x80021c <i2c_Do>
 
			TWCR = 	0<<TWSTA|
     98e:	85 ed       	ldi	r24, 0xD5	; 213
     990:	80 93 bc 00 	sts	0x00BC, r24	; 0x8000bc <__TEXT_REGION_LENGTH__+0x7e00bc>
				1<<TWINT|
				i2c_i_am_slave<<TWEA|
				1<<TWEN|
				1<<TWIE;  	// Go!
 
			MACRO_i2c_WhatDo_ErrorOut
     994:	e0 91 02 01 	lds	r30, 0x0102	; 0x800102 <ErrorOutFunc>
     998:	f0 91 03 01 	lds	r31, 0x0103	; 0x800103 <ErrorOutFunc+0x1>
     99c:	09 95       	icall
			break;
     99e:	96 c1       	rjmp	.+812    	; 0xccc <__vector_24+0x388>
			}
 
	case 0x08:	// Старт был, а затем мы:
			{
			if( (i2c_Do & i2c_type_msk)== i2c_sarp)			// В зависимости от режима
     9a0:	80 91 1c 02 	lds	r24, 0x021C	; 0x80021c <i2c_Do>
     9a4:	8c 70       	andi	r24, 0x0C	; 12
     9a6:	31 f4       	brne	.+12     	; 0x9b4 <__vector_24+0x70>
				{
				i2c_SlaveAddress |= 0x01;					// Шлем Addr+R
     9a8:	80 91 af 01 	lds	r24, 0x01AF	; 0x8001af <i2c_SlaveAddress>
     9ac:	81 60       	ori	r24, 0x01	; 1
     9ae:	80 93 af 01 	sts	0x01AF, r24	; 0x8001af <i2c_SlaveAddress>
     9b2:	05 c0       	rjmp	.+10     	; 0x9be <__vector_24+0x7a>
				}
			else											// Или 
				{
				i2c_SlaveAddress &= 0xFE;					// Шлем Addr+W
     9b4:	80 91 af 01 	lds	r24, 0x01AF	; 0x8001af <i2c_SlaveAddress>
     9b8:	8e 7f       	andi	r24, 0xFE	; 254
     9ba:	80 93 af 01 	sts	0x01AF, r24	; 0x8001af <i2c_SlaveAddress>
				}
 
			TWDR = i2c_SlaveAddress;				// Адрес слейва
     9be:	80 91 af 01 	lds	r24, 0x01AF	; 0x8001af <i2c_SlaveAddress>
     9c2:	80 93 bb 00 	sts	0x00BB, r24	; 0x8000bb <__TEXT_REGION_LENGTH__+0x7e00bb>
			TWCR = 	0<<TWSTA|
     9c6:	85 ec       	ldi	r24, 0xC5	; 197
     9c8:	80 93 bc 00 	sts	0x00BC, r24	; 0x8000bc <__TEXT_REGION_LENGTH__+0x7e00bc>
				0<<TWSTO|
				1<<TWINT|
				i2c_i_am_slave<<TWEA|
				1<<TWEN|
				1<<TWIE;  								// Go!
			break;
     9cc:	7f c1       	rjmp	.+766    	; 0xccc <__vector_24+0x388>
			}
 
	case 0x10:	// Повторный старт был, а затем мы
			{
			if( (i2c_Do & i2c_type_msk) == i2c_sawsarp)		// В зависимости от режима
     9ce:	80 91 1c 02 	lds	r24, 0x021C	; 0x80021c <i2c_Do>
     9d2:	8c 70       	andi	r24, 0x0C	; 12
     9d4:	88 30       	cpi	r24, 0x08	; 8
     9d6:	31 f4       	brne	.+12     	; 0x9e4 <__vector_24+0xa0>
				{
				i2c_SlaveAddress |= 0x01;					// Шлем Addr+R
     9d8:	80 91 af 01 	lds	r24, 0x01AF	; 0x8001af <i2c_SlaveAddress>
     9dc:	81 60       	ori	r24, 0x01	; 1
     9de:	80 93 af 01 	sts	0x01AF, r24	; 0x8001af <i2c_SlaveAddress>
     9e2:	05 c0       	rjmp	.+10     	; 0x9ee <__vector_24+0xaa>
				}
			else
				{
				i2c_SlaveAddress &= 0xFE;					// Шлем Addr+W
     9e4:	80 91 af 01 	lds	r24, 0x01AF	; 0x8001af <i2c_SlaveAddress>
     9e8:	8e 7f       	andi	r24, 0xFE	; 254
     9ea:	80 93 af 01 	sts	0x01AF, r24	; 0x8001af <i2c_SlaveAddress>
				}
 
			// To Do: Добавить сюда обработку ошибок 
 
			TWDR = i2c_SlaveAddress;				// Адрес слейва
     9ee:	80 91 af 01 	lds	r24, 0x01AF	; 0x8001af <i2c_SlaveAddress>
     9f2:	80 93 bb 00 	sts	0x00BB, r24	; 0x8000bb <__TEXT_REGION_LENGTH__+0x7e00bb>
			TWCR = 	0<<TWSTA|
     9f6:	85 ec       	ldi	r24, 0xC5	; 197
     9f8:	80 93 bc 00 	sts	0x00BC, r24	; 0x8000bc <__TEXT_REGION_LENGTH__+0x7e00bc>
				0<<TWSTO|
				1<<TWINT|
				i2c_i_am_slave<<TWEA|
				1<<TWEN|
				1<<TWIE;  	// Go!
			break;
     9fc:	67 c1       	rjmp	.+718    	; 0xccc <__vector_24+0x388>
			}
 
	case 0x18:	// Был послан SLA+W получили ACK, а затем:
			{
			if( (i2c_Do & i2c_type_msk) == i2c_sawp)		// В зависимости от режима
     9fe:	80 91 1c 02 	lds	r24, 0x021C	; 0x80021c <i2c_Do>
     a02:	8c 70       	andi	r24, 0x0C	; 12
     a04:	84 30       	cpi	r24, 0x04	; 4
     a06:	81 f4       	brne	.+32     	; 0xa28 <__vector_24+0xe4>
				{
				TWDR = i2c_Buffer[i2c_index];				// Шлем байт данных
     a08:	e0 91 ab 01 	lds	r30, 0x01AB	; 0x8001ab <i2c_index>
     a0c:	f0 e0       	ldi	r31, 0x00	; 0
     a0e:	e4 55       	subi	r30, 0x54	; 84
     a10:	fe 4f       	sbci	r31, 0xFE	; 254
     a12:	80 81       	ld	r24, Z
     a14:	80 93 bb 00 	sts	0x00BB, r24	; 0x8000bb <__TEXT_REGION_LENGTH__+0x7e00bb>
				i2c_index++;							// Увеличиваем указатель буфера
     a18:	80 91 ab 01 	lds	r24, 0x01AB	; 0x8001ab <i2c_index>
     a1c:	8f 5f       	subi	r24, 0xFF	; 255
     a1e:	80 93 ab 01 	sts	0x01AB, r24	; 0x8001ab <i2c_index>
 
				TWCR = 	0<<TWSTA|
     a22:	85 ec       	ldi	r24, 0xC5	; 197
     a24:	80 93 bc 00 	sts	0x00BC, r24	; 0x8000bc <__TEXT_REGION_LENGTH__+0x7e00bc>
					1<<TWEN|
					1<<TWIE;  // Go! 
 
				}
 
			if( (i2c_Do & i2c_type_msk) == i2c_sawsarp)
     a28:	80 91 1c 02 	lds	r24, 0x021C	; 0x80021c <i2c_Do>
     a2c:	8c 70       	andi	r24, 0x0C	; 12
     a2e:	88 30       	cpi	r24, 0x08	; 8
     a30:	09 f0       	breq	.+2      	; 0xa34 <__vector_24+0xf0>
     a32:	4c c1       	rjmp	.+664    	; 0xccc <__vector_24+0x388>
				{
				TWDR = i2c_PageAddress[i2c_PageAddrIndex];	// Или шлем адрес странцы (по сути тоже байт данных)
     a34:	e0 91 b4 01 	lds	r30, 0x01B4	; 0x8001b4 <i2c_PageAddrIndex>
     a38:	f0 e0       	ldi	r31, 0x00	; 0
     a3a:	ee 54       	subi	r30, 0x4E	; 78
     a3c:	fe 4f       	sbci	r31, 0xFE	; 254
     a3e:	80 81       	ld	r24, Z
     a40:	80 93 bb 00 	sts	0x00BB, r24	; 0x8000bb <__TEXT_REGION_LENGTH__+0x7e00bb>
				i2c_PageAddrIndex++;
     a44:	80 91 b4 01 	lds	r24, 0x01B4	; 0x8001b4 <i2c_PageAddrIndex>
     a48:	8f 5f       	subi	r24, 0xFF	; 255
     a4a:	80 93 b4 01 	sts	0x01B4, r24	; 0x8001b4 <i2c_PageAddrIndex>
															// Увеличиваем указатель буфера страницы
				TWCR = 	0<<TWSTA|
     a4e:	85 ec       	ldi	r24, 0xC5	; 197
     a50:	80 93 bc 00 	sts	0x00BC, r24	; 0x8000bc <__TEXT_REGION_LENGTH__+0x7e00bc>
     a54:	3b c1       	rjmp	.+630    	; 0xccc <__vector_24+0x388>
			}
			break;
 
	case 0x20:	// Был послан SLA+W получили NACK - слейв либо занят, либо его нет дома.
			{
			i2c_Do |= i2c_ERR_NA;	
     a56:	80 91 1c 02 	lds	r24, 0x021C	; 0x80021c <i2c_Do>
     a5a:	80 61       	ori	r24, 0x10	; 16
     a5c:	80 93 1c 02 	sts	0x021C, r24	; 0x80021c <i2c_Do>
															// Код ошибки
			TWCR = 	0<<TWSTA|
     a60:	85 ed       	ldi	r24, 0xD5	; 213
     a62:	80 93 bc 00 	sts	0x00BC, r24	; 0x8000bc <__TEXT_REGION_LENGTH__+0x7e00bc>
				1<<TWINT|
				i2c_i_am_slave<<TWEA|
				1<<TWEN|
				1<<TWIE;								// Шлем шине Stop
 
			MACRO_i2c_WhatDo_ErrorOut 						// Обрабатываем событие ошибки;
     a66:	e0 91 02 01 	lds	r30, 0x0102	; 0x800102 <ErrorOutFunc>
     a6a:	f0 91 03 01 	lds	r31, 0x0103	; 0x800103 <ErrorOutFunc+0x1>
     a6e:	09 95       	icall
			break;
     a70:	2d c1       	rjmp	.+602    	; 0xccc <__vector_24+0x388>
			}
 
	case 0x28: 	// Байт данных послали, получили ACK!  (если sawp - это был байт данных. если sawsarp - байт адреса страницы)
			{	// А дальше: 
			if( (i2c_Do & i2c_type_msk) == i2c_sawp)		// В зависимости от режима
     a72:	80 91 1c 02 	lds	r24, 0x021C	; 0x80021c <i2c_Do>
     a76:	8c 70       	andi	r24, 0x0C	; 12
     a78:	84 30       	cpi	r24, 0x04	; 4
     a7a:	e9 f4       	brne	.+58     	; 0xab6 <__vector_24+0x172>
				{
				if (i2c_index == i2c_ByteCount)				// Если был байт данных последний
     a7c:	e0 91 ab 01 	lds	r30, 0x01AB	; 0x8001ab <i2c_index>
     a80:	80 91 19 02 	lds	r24, 0x0219	; 0x800219 <i2c_ByteCount>
     a84:	e8 13       	cpse	r30, r24
     a86:	09 c0       	rjmp	.+18     	; 0xa9a <__vector_24+0x156>
					{																		
					TWCR = 	0<<TWSTA|
     a88:	85 ed       	ldi	r24, 0xD5	; 213
     a8a:	80 93 bc 00 	sts	0x00BC, r24	; 0x8000bc <__TEXT_REGION_LENGTH__+0x7e00bc>
						1<<TWINT|
						i2c_i_am_slave<<TWEA|
						1<<TWEN|
						1<<TWIE;						// Шлем Stop
 
					MACRO_i2c_WhatDo_MasterOut				// И выходим в обработку стопа
     a8e:	e0 91 06 01 	lds	r30, 0x0106	; 0x800106 <MasterOutFunc>
     a92:	f0 91 07 01 	lds	r31, 0x0107	; 0x800107 <MasterOutFunc+0x1>
     a96:	09 95       	icall
     a98:	0e c0       	rjmp	.+28     	; 0xab6 <__vector_24+0x172>
 
					}
				else
					{
					TWDR = i2c_Buffer[i2c_index];			// Либо шлем еще один байт
     a9a:	f0 e0       	ldi	r31, 0x00	; 0
     a9c:	e4 55       	subi	r30, 0x54	; 84
     a9e:	fe 4f       	sbci	r31, 0xFE	; 254
     aa0:	80 81       	ld	r24, Z
     aa2:	80 93 bb 00 	sts	0x00BB, r24	; 0x8000bb <__TEXT_REGION_LENGTH__+0x7e00bb>
					i2c_index++;
     aa6:	80 91 ab 01 	lds	r24, 0x01AB	; 0x8001ab <i2c_index>
     aaa:	8f 5f       	subi	r24, 0xFF	; 255
     aac:	80 93 ab 01 	sts	0x01AB, r24	; 0x8001ab <i2c_index>
					TWCR = 	0<<TWSTA|						
     ab0:	85 ec       	ldi	r24, 0xC5	; 197
     ab2:	80 93 bc 00 	sts	0x00BC, r24	; 0x8000bc <__TEXT_REGION_LENGTH__+0x7e00bc>
						1<<TWEN|
						1<<TWIE;  						// Go!
					}
				}
 
			if( (i2c_Do & i2c_type_msk) == i2c_sawsarp)		// В другом режиме мы
     ab6:	80 91 1c 02 	lds	r24, 0x021C	; 0x80021c <i2c_Do>
     aba:	8c 70       	andi	r24, 0x0C	; 12
     abc:	88 30       	cpi	r24, 0x08	; 8
     abe:	09 f0       	breq	.+2      	; 0xac2 <__vector_24+0x17e>
     ac0:	05 c1       	rjmp	.+522    	; 0xccc <__vector_24+0x388>
				{
				if(i2c_PageAddrIndex == i2c_PageAddrCount)	// Если последний байт адреса страницы
     ac2:	e0 91 b4 01 	lds	r30, 0x01B4	; 0x8001b4 <i2c_PageAddrIndex>
     ac6:	80 91 b1 01 	lds	r24, 0x01B1	; 0x8001b1 <i2c_PageAddrCount>
     aca:	e8 13       	cpse	r30, r24
     acc:	04 c0       	rjmp	.+8      	; 0xad6 <__vector_24+0x192>
					{
					TWCR = 	1<<TWSTA|
     ace:	85 ee       	ldi	r24, 0xE5	; 229
     ad0:	80 93 bc 00 	sts	0x00BC, r24	; 0x8000bc <__TEXT_REGION_LENGTH__+0x7e00bc>
     ad4:	fb c0       	rjmp	.+502    	; 0xccc <__vector_24+0x388>
						1<<TWEN|
						1<<TWIE;						// Запускаем Повторный старт!
					}
				else
					{												// Иначе 
					TWDR = i2c_PageAddress[i2c_PageAddrIndex];		// шлем еще один адрес страницы
     ad6:	f0 e0       	ldi	r31, 0x00	; 0
     ad8:	ee 54       	subi	r30, 0x4E	; 78
     ada:	fe 4f       	sbci	r31, 0xFE	; 254
     adc:	80 81       	ld	r24, Z
     ade:	80 93 bb 00 	sts	0x00BB, r24	; 0x8000bb <__TEXT_REGION_LENGTH__+0x7e00bb>
					i2c_PageAddrIndex++;							// Увеличиваем индекс счетчика адреса страниц
     ae2:	80 91 b4 01 	lds	r24, 0x01B4	; 0x8001b4 <i2c_PageAddrIndex>
     ae6:	8f 5f       	subi	r24, 0xFF	; 255
     ae8:	80 93 b4 01 	sts	0x01B4, r24	; 0x8001b4 <i2c_PageAddrIndex>
					TWCR = 	0<<TWSTA|
     aec:	85 ec       	ldi	r24, 0xC5	; 197
     aee:	80 93 bc 00 	sts	0x00BC, r24	; 0x8000bc <__TEXT_REGION_LENGTH__+0x7e00bc>
     af2:	ec c0       	rjmp	.+472    	; 0xccc <__vector_24+0x388>
			}
			break;
 
	case 0x30:	//Байт ушел, но получили NACK причин две. 1я передача оборвана слейвом и так надо. 2я слейв сглючил.
			{
			i2c_Do |= i2c_ERR_NK;						// Запишем статус ошибки. Хотя это не факт, что ошибка. 
     af4:	80 91 1c 02 	lds	r24, 0x021C	; 0x80021c <i2c_Do>
     af8:	82 60       	ori	r24, 0x02	; 2
     afa:	80 93 1c 02 	sts	0x021C, r24	; 0x80021c <i2c_Do>
 
			TWCR = 	0<<TWSTA|
     afe:	85 ed       	ldi	r24, 0xD5	; 213
     b00:	80 93 bc 00 	sts	0x00BC, r24	; 0x8000bc <__TEXT_REGION_LENGTH__+0x7e00bc>
				1<<TWINT|
				i2c_i_am_slave<<TWEA|
				1<<TWEN|
				1<<TWIE;							// Шлем Stop
 
			MACRO_i2c_WhatDo_MasterOut					// Отрабатываем событие выхода
     b04:	e0 91 06 01 	lds	r30, 0x0106	; 0x800106 <MasterOutFunc>
     b08:	f0 91 07 01 	lds	r31, 0x0107	; 0x800107 <MasterOutFunc+0x1>
     b0c:	09 95       	icall
 
			break;
     b0e:	de c0       	rjmp	.+444    	; 0xccc <__vector_24+0x388>
			}
 
	case 0x38:	//  Коллизия на шине. Нашелся кто то поглавней
			{
			i2c_Do |= i2c_ERR_LP;						// Ставим ошибку потери приоритета
     b10:	80 91 1c 02 	lds	r24, 0x021C	; 0x80021c <i2c_Do>
     b14:	80 62       	ori	r24, 0x20	; 32
     b16:	80 93 1c 02 	sts	0x021C, r24	; 0x80021c <i2c_Do>
 
			// Настраиваем индексы заново. 
			i2c_index = 0;
     b1a:	10 92 ab 01 	sts	0x01AB, r1	; 0x8001ab <i2c_index>
			i2c_PageAddrIndex = 0;
     b1e:	10 92 b4 01 	sts	0x01B4, r1	; 0x8001b4 <i2c_PageAddrIndex>
 
			TWCR = 	1<<TWSTA|
     b22:	85 ee       	ldi	r24, 0xE5	; 229
     b24:	80 93 bc 00 	sts	0x00BC, r24	; 0x8000bc <__TEXT_REGION_LENGTH__+0x7e00bc>
				0<<TWSTO|
				1<<TWINT|
				i2c_i_am_slave<<TWEA|
				1<<TWEN|
				1<<TWIE;							// Как только шина будет свободна 
			break;										// попробуем передать снова.
     b28:	d1 c0       	rjmp	.+418    	; 0xccc <__vector_24+0x388>
			}
 
	case 0x40: // Послали SLA+R получили АСК. А теперь будем получать байты
			{
			if(i2c_index+1 == i2c_ByteCount)			// Если буфер кончится на этом байте, то 
     b2a:	80 91 ab 01 	lds	r24, 0x01AB	; 0x8001ab <i2c_index>
     b2e:	90 e0       	ldi	r25, 0x00	; 0
     b30:	01 96       	adiw	r24, 0x01	; 1
     b32:	20 91 19 02 	lds	r18, 0x0219	; 0x800219 <i2c_ByteCount>
     b36:	30 e0       	ldi	r19, 0x00	; 0
     b38:	82 17       	cp	r24, r18
     b3a:	93 07       	cpc	r25, r19
     b3c:	21 f4       	brne	.+8      	; 0xb46 <__vector_24+0x202>
				{
				TWCR = 	0<<TWSTA|
     b3e:	85 e8       	ldi	r24, 0x85	; 133
     b40:	80 93 bc 00 	sts	0x00BC, r24	; 0x8000bc <__TEXT_REGION_LENGTH__+0x7e00bc>
     b44:	c3 c0       	rjmp	.+390    	; 0xccc <__vector_24+0x388>
					1<<TWEN|
					1<<TWIE;						// Требуем байт, а в ответ потом пошлем NACK(Disconnect)
				}										// Что даст понять слейву, что мол хватит гнать. И он отпустит шину
			else
				{
				TWCR = 	0<<TWSTA|
     b46:	85 ec       	ldi	r24, 0xC5	; 197
     b48:	80 93 bc 00 	sts	0x00BC, r24	; 0x8000bc <__TEXT_REGION_LENGTH__+0x7e00bc>
     b4c:	bf c0       	rjmp	.+382    	; 0xccc <__vector_24+0x388>
			break;
			}
 
	case 0x48: // Послали SLA+R, но получили NACK. Видать slave занят или его нет дома. 
			{
			i2c_Do |= i2c_ERR_NA;
     b4e:	80 91 1c 02 	lds	r24, 0x021C	; 0x80021c <i2c_Do>
     b52:	80 61       	ori	r24, 0x10	; 16
     b54:	80 93 1c 02 	sts	0x021C, r24	; 0x80021c <i2c_Do>
														// Код ошибки No Answer
			TWCR = 	0<<TWSTA|
     b58:	85 ed       	ldi	r24, 0xD5	; 213
     b5a:	80 93 bc 00 	sts	0x00BC, r24	; 0x8000bc <__TEXT_REGION_LENGTH__+0x7e00bc>
				1<<TWINT|
				i2c_i_am_slave<<TWEA|
				1<<TWEN|
				1<<TWIE;							// Шлем Stop
 
			MACRO_i2c_WhatDo_ErrorOut					// Отрабатываем выходную ситуацию ошибки
     b5e:	e0 91 02 01 	lds	r30, 0x0102	; 0x800102 <ErrorOutFunc>
     b62:	f0 91 03 01 	lds	r31, 0x0103	; 0x800103 <ErrorOutFunc+0x1>
     b66:	09 95       	icall
			break;
     b68:	b1 c0       	rjmp	.+354    	; 0xccc <__vector_24+0x388>
			}
 
	case 0x50: // Приняли байт.
			{ 
			i2c_Buffer[i2c_index] = TWDR;				// Забрали его из буфера
     b6a:	80 91 ab 01 	lds	r24, 0x01AB	; 0x8001ab <i2c_index>
     b6e:	90 91 bb 00 	lds	r25, 0x00BB	; 0x8000bb <__TEXT_REGION_LENGTH__+0x7e00bb>
     b72:	e8 2f       	mov	r30, r24
     b74:	f0 e0       	ldi	r31, 0x00	; 0
     b76:	e4 55       	subi	r30, 0x54	; 84
     b78:	fe 4f       	sbci	r31, 0xFE	; 254
     b7a:	90 83       	st	Z, r25
			i2c_index++;
     b7c:	8f 5f       	subi	r24, 0xFF	; 255
     b7e:	80 93 ab 01 	sts	0x01AB, r24	; 0x8001ab <i2c_index>
 
			// To Do: Добавить проверку переполнения буфера. А то мало ли что юзер затребует
 
			if (i2c_index+1 == i2c_ByteCount)			// Если остался еще один байт из тех, что мы хотели считать
     b82:	90 e0       	ldi	r25, 0x00	; 0
     b84:	01 96       	adiw	r24, 0x01	; 1
     b86:	20 91 19 02 	lds	r18, 0x0219	; 0x800219 <i2c_ByteCount>
     b8a:	30 e0       	ldi	r19, 0x00	; 0
     b8c:	82 17       	cp	r24, r18
     b8e:	93 07       	cpc	r25, r19
     b90:	21 f4       	brne	.+8      	; 0xb9a <__vector_24+0x256>
				{
				TWCR = 	0<<TWSTA|
     b92:	85 e8       	ldi	r24, 0x85	; 133
     b94:	80 93 bc 00 	sts	0x00BC, r24	; 0x8000bc <__TEXT_REGION_LENGTH__+0x7e00bc>
     b98:	99 c0       	rjmp	.+306    	; 0xccc <__vector_24+0x388>
					1<<TWEN|
					1<<TWIE;						// Затребываем его и потом пошлем NACK (Disconnect)
				}
			else
				{
				TWCR = 	0<<TWSTA|
     b9a:	85 ec       	ldi	r24, 0xC5	; 197
     b9c:	80 93 bc 00 	sts	0x00BC, r24	; 0x8000bc <__TEXT_REGION_LENGTH__+0x7e00bc>
     ba0:	95 c0       	rjmp	.+298    	; 0xccc <__vector_24+0x388>
			break;
			}
 
	case 0x58:	// Вот мы взяли последний байт, сказали NACK слейв обиделся и отпал. 
			{
			i2c_Buffer[i2c_index] = TWDR;				// Взяли байт в буфер
     ba2:	80 91 bb 00 	lds	r24, 0x00BB	; 0x8000bb <__TEXT_REGION_LENGTH__+0x7e00bb>
     ba6:	e0 91 ab 01 	lds	r30, 0x01AB	; 0x8001ab <i2c_index>
     baa:	f0 e0       	ldi	r31, 0x00	; 0
     bac:	e4 55       	subi	r30, 0x54	; 84
     bae:	fe 4f       	sbci	r31, 0xFE	; 254
     bb0:	80 83       	st	Z, r24
			TWCR = 	0<<TWSTA|
     bb2:	85 ed       	ldi	r24, 0xD5	; 213
     bb4:	80 93 bc 00 	sts	0x00BC, r24	; 0x8000bc <__TEXT_REGION_LENGTH__+0x7e00bc>
				1<<TWINT|
				i2c_i_am_slave<<TWEA|
				1<<TWEN|
				1<<TWIE;							// Передали Stop
 
			MACRO_i2c_WhatDo_MasterOut					// Отработали точку выхода
     bb8:	e0 91 06 01 	lds	r30, 0x0106	; 0x800106 <MasterOutFunc>
     bbc:	f0 91 07 01 	lds	r31, 0x0107	; 0x800107 <MasterOutFunc+0x1>
     bc0:	09 95       	icall
 
			break;
     bc2:	84 c0       	rjmp	.+264    	; 0xccc <__vector_24+0x388>
// IIC  Slave ============================================================================
 
	case 0x68:	// RCV SLA+W Low Priority				// Словили свой адрес во время передачи мастером
	case 0x78:	// RCV SLA+W Low Priority (Broadcast)				// Или это был широковещательный пакет. Не важно
			{
			i2c_Do |= i2c_ERR_LP | i2c_Interrupted;		// Ставим флаг ошибки Low Priority, а также флаг того, что мастера прервали
     bc4:	80 91 1c 02 	lds	r24, 0x021C	; 0x80021c <i2c_Do>
     bc8:	80 6a       	ori	r24, 0xA0	; 160
     bca:	80 93 1c 02 	sts	0x021C, r24	; 0x80021c <i2c_Do>
 
			// Restore Trans after.
			i2c_index = 0;								// Подготовили прерваную передачу заново
     bce:	10 92 ab 01 	sts	0x01AB, r1	; 0x8001ab <i2c_index>
			i2c_PageAddrIndex = 0;
     bd2:	10 92 b4 01 	sts	0x01B4, r1	; 0x8001b4 <i2c_PageAddrIndex>
 
	case 0x60: // RCV SLA+W  Incoming?					// Или просто получили свой адрес
	case 0x70: // RCV SLA+W  Incoming? (Broascast)		// Или широковещательный пакет
			{
 
			i2c_Do |= i2c_Busy;							// Занимаем шину. Чтобы другие не совались
     bd6:	80 91 1c 02 	lds	r24, 0x021C	; 0x80021c <i2c_Do>
     bda:	80 64       	ori	r24, 0x40	; 64
     bdc:	80 93 1c 02 	sts	0x021C, r24	; 0x80021c <i2c_Do>
			i2c_SlaveIndex = 0;							// Указатель на начало буфера слейва, Неважно какой буфер. Не ошибемся
     be0:	10 92 1a 02 	sts	0x021A, r1	; 0x80021a <i2c_SlaveIndex>
 
			if (i2c_MasterBytesRX == 1)					// Если нам суждено принять всего один байт, то готовимся принять  его
				{
				TWCR = 	0<<TWSTA|
     be4:	85 e8       	ldi	r24, 0x85	; 133
     be6:	80 93 bc 00 	sts	0x00BC, r24	; 0x8000bc <__TEXT_REGION_LENGTH__+0x7e00bc>
     bea:	70 c0       	rjmp	.+224    	; 0xccc <__vector_24+0x388>
			}
 
	case 0x80:	// RCV Data Byte						// И вот мы приняли этот байт. Наш или широковещательный. Не важно
	case 0x90:	// RCV Data Byte (Broadcast)
			{
			i2c_InBuff[i2c_SlaveIndex] = TWDR;			// Сжираем его в буфер.
     bec:	80 91 1a 02 	lds	r24, 0x021A	; 0x80021a <i2c_SlaveIndex>
     bf0:	90 91 bb 00 	lds	r25, 0x00BB	; 0x8000bb <__TEXT_REGION_LENGTH__+0x7e00bb>
     bf4:	e8 2f       	mov	r30, r24
     bf6:	f0 e0       	ldi	r31, 0x00	; 0
     bf8:	e5 5e       	subi	r30, 0xE5	; 229
     bfa:	fd 4f       	sbci	r31, 0xFD	; 253
     bfc:	90 83       	st	Z, r25
 
			i2c_SlaveIndex++;							// Сдвигаем указатель
     bfe:	8f 5f       	subi	r24, 0xFF	; 255
     c00:	80 93 1a 02 	sts	0x021A, r24	; 0x80021a <i2c_SlaveIndex>
 
			if (i2c_SlaveIndex == i2c_MasterBytesRX-1) 	// Свободно место всего под один байт? 
     c04:	81 11       	cpse	r24, r1
     c06:	04 c0       	rjmp	.+8      	; 0xc10 <__vector_24+0x2cc>
				{
				TWCR = 	0<<TWSTA|
     c08:	85 e8       	ldi	r24, 0x85	; 133
     c0a:	80 93 bc 00 	sts	0x00BC, r24	; 0x8000bc <__TEXT_REGION_LENGTH__+0x7e00bc>
     c0e:	5e c0       	rjmp	.+188    	; 0xccc <__vector_24+0x388>
					1<<TWEN|
					1<<TWIE;						// Приянть его и сказать NACK!
				}
			else 
				{
				TWCR = 	0<<TWSTA|
     c10:	85 ec       	ldi	r24, 0xC5	; 197
     c12:	80 93 bc 00 	sts	0x00BC, r24	; 0x8000bc <__TEXT_REGION_LENGTH__+0x7e00bc>
     c16:	5a c0       	rjmp	.+180    	; 0xccc <__vector_24+0x388>
			} 
 
	case 0x88: // RCV Last Byte							// Приянли последний байт
	case 0x98: // RCV Last Byte (Broadcast)
			{
			i2c_InBuff[i2c_SlaveIndex] = TWDR;			// Сожрали его в буфер
     c18:	80 91 bb 00 	lds	r24, 0x00BB	; 0x8000bb <__TEXT_REGION_LENGTH__+0x7e00bb>
     c1c:	e0 91 1a 02 	lds	r30, 0x021A	; 0x80021a <i2c_SlaveIndex>
     c20:	f0 e0       	ldi	r31, 0x00	; 0
     c22:	e5 5e       	subi	r30, 0xE5	; 229
     c24:	fd 4f       	sbci	r31, 0xFD	; 253
     c26:	80 83       	st	Z, r24
 
			if (i2c_Do & i2c_Interrupted)				// Если у нас был прерываный сеанс от имени мастера
     c28:	80 91 1c 02 	lds	r24, 0x021C	; 0x80021c <i2c_Do>
     c2c:	88 23       	and	r24, r24
     c2e:	24 f4       	brge	.+8      	; 0xc38 <__vector_24+0x2f4>
				{
				TWCR = 	1<<TWSTA|
     c30:	85 ee       	ldi	r24, 0xE5	; 229
     c32:	80 93 bc 00 	sts	0x00BC, r24	; 0x8000bc <__TEXT_REGION_LENGTH__+0x7e00bc>
     c36:	03 c0       	rjmp	.+6      	; 0xc3e <__vector_24+0x2fa>
					1<<TWEN|
					1<<TWIE;						// Влепим в шину свой Start поскорей и сделаем еще одну попытку
				}
			else
				{
				TWCR = 	0<<TWSTA|
     c38:	85 ec       	ldi	r24, 0xC5	; 197
     c3a:	80 93 bc 00 	sts	0x00BC, r24	; 0x8000bc <__TEXT_REGION_LENGTH__+0x7e00bc>
					1<<TWEA|
					1<<TWEN|
					1<<TWIE;						// Если не было такого факта, то просто отвалимся и будем ждать
				}
 
			MACRO_i2c_WhatDo_SlaveOut					// И лениво отработаем наш выходной экшн для слейва
     c3e:	e0 91 04 01 	lds	r30, 0x0104	; 0x800104 <SlaveOutFunc>
     c42:	f0 91 05 01 	lds	r31, 0x0105	; 0x800105 <SlaveOutFunc+0x1>
     c46:	09 95       	icall
			break;
     c48:	41 c0       	rjmp	.+130    	; 0xccc <__vector_24+0x388>
			{
 
			// Можно, конечно, сделать вспомогательный автомат, чтобы обрабатывать еще и адреса внутренних страниц, подобно еепромке. 
			// Но я не стал заморачиваться. В этом случае делается это тут.
 
			TWCR = 	0<<TWSTA|
     c4a:	85 ec       	ldi	r24, 0xC5	; 197
     c4c:	80 93 bc 00 	sts	0x00BC, r24	; 0x8000bc <__TEXT_REGION_LENGTH__+0x7e00bc>
				0<<TWSTO|
				1<<TWINT|
				1<<TWEA|
				1<<TWEN|
				1<<TWIE;							// просто разадресуемся, проигнорировав этот посыл	
			break;
     c50:	3d c0       	rjmp	.+122    	; 0xccc <__vector_24+0x388>
 
 
 
	case 0xB0:  // Поймали свой адрес на чтение во время передачи Мастером			
			{
			i2c_Do |= i2c_ERR_LP | i2c_Interrupted;		// Ну чо, коды ошибки и флаг прерваной передачи.
     c52:	80 91 1c 02 	lds	r24, 0x021C	; 0x80021c <i2c_Do>
     c56:	80 6a       	ori	r24, 0xA0	; 160
     c58:	80 93 1c 02 	sts	0x021C, r24	; 0x80021c <i2c_Do>
 
 
			// Восстанавливаем индексы
			i2c_index = 0;
     c5c:	10 92 ab 01 	sts	0x01AB, r1	; 0x8001ab <i2c_index>
			i2c_PageAddrIndex = 0;
     c60:	10 92 b4 01 	sts	0x01B4, r1	; 0x8001b4 <i2c_PageAddrIndex>
 
			}											// Break нет! Идем дальше						
 
	case 0xA8:	// // Либо просто словили свой адрес на чтение
			{
			i2c_SlaveIndex = 0;							// Индексы слейвовых массивов на 0
     c64:	10 92 1a 02 	sts	0x021A, r1	; 0x80021a <i2c_SlaveIndex>
 
			TWDR = i2c_OutBuff[i2c_SlaveIndex];			// Чтож, отдадим байт из тех что есть.
     c68:	80 91 b0 01 	lds	r24, 0x01B0	; 0x8001b0 <i2c_OutBuff>
     c6c:	80 93 bb 00 	sts	0x00BB, r24	; 0x8000bb <__TEXT_REGION_LENGTH__+0x7e00bb>
 
			if(i2c_MasterBytesTX == 1)
				{
				TWCR = 	0<<TWSTA|
     c70:	85 e8       	ldi	r24, 0x85	; 133
     c72:	80 93 bc 00 	sts	0x00BC, r24	; 0x8000bc <__TEXT_REGION_LENGTH__+0x7e00bc>
     c76:	2a c0       	rjmp	.+84     	; 0xccc <__vector_24+0x388>
 
 
	case 0xB8: // Послали байт, получили ACK
			{
 
			i2c_SlaveIndex++;								// Значит продолжаем дискотеку. Берем следующий байт
     c78:	e0 91 1a 02 	lds	r30, 0x021A	; 0x80021a <i2c_SlaveIndex>
     c7c:	ef 5f       	subi	r30, 0xFF	; 255
     c7e:	e0 93 1a 02 	sts	0x021A, r30	; 0x80021a <i2c_SlaveIndex>
			TWDR = i2c_OutBuff[i2c_SlaveIndex];				// Даем его мастеру
     c82:	f0 e0       	ldi	r31, 0x00	; 0
     c84:	e0 55       	subi	r30, 0x50	; 80
     c86:	fe 4f       	sbci	r31, 0xFE	; 254
     c88:	80 81       	ld	r24, Z
     c8a:	80 93 bb 00 	sts	0x00BB, r24	; 0x8000bb <__TEXT_REGION_LENGTH__+0x7e00bb>
 
			if (i2c_SlaveIndex == i2c_MasterBytesTX-1)		// Если он последний был, то
     c8e:	80 91 1a 02 	lds	r24, 0x021A	; 0x80021a <i2c_SlaveIndex>
     c92:	81 11       	cpse	r24, r1
     c94:	04 c0       	rjmp	.+8      	; 0xc9e <__vector_24+0x35a>
				{
				TWCR = 	0<<TWSTA|
     c96:	85 e8       	ldi	r24, 0x85	; 133
     c98:	80 93 bc 00 	sts	0x00BC, r24	; 0x8000bc <__TEXT_REGION_LENGTH__+0x7e00bc>
     c9c:	17 c0       	rjmp	.+46     	; 0xccc <__vector_24+0x388>
					1<<TWEN|
					1<<TWIE;							// Шлем его и ждем NACK
				}
			else
				{
				TWCR = 	0<<TWSTA|
     c9e:	81 ec       	ldi	r24, 0xC1	; 193
     ca0:	80 93 bc 00 	sts	0x00BC, r24	; 0x8000bc <__TEXT_REGION_LENGTH__+0x7e00bc>
     ca4:	13 c0       	rjmp	.+38     	; 0xccc <__vector_24+0x388>
			}
 
	case 0xC0: // Мы выслали последний байт, больше у нас нет, получили NACK
	case 0xC8: // или ACK. В данном случае нам пох. Т.к. больше байтов у нас нет.
			{
			if (i2c_Do & i2c_Interrupted)			// Если там была прерваная передача мастера
     ca6:	80 91 1c 02 	lds	r24, 0x021C	; 0x80021c <i2c_Do>
     caa:	88 23       	and	r24, r24
     cac:	3c f4       	brge	.+14     	; 0xcbc <__vector_24+0x378>
				{									// То мы ему ее вернем
				i2c_Do &= i2c_NoInterrupted;
     cae:	8f 77       	andi	r24, 0x7F	; 127
     cb0:	80 93 1c 02 	sts	0x021C, r24	; 0x80021c <i2c_Do>
													// Снимем флаг прерваности
				TWCR = 	1<<TWSTA|
     cb4:	85 ee       	ldi	r24, 0xE5	; 229
     cb6:	80 93 bc 00 	sts	0x00BC, r24	; 0x8000bc <__TEXT_REGION_LENGTH__+0x7e00bc>
     cba:	03 c0       	rjmp	.+6      	; 0xcc2 <__vector_24+0x37e>
					1<<TWEN|
					1<<TWIE;					// Сгенерим старт сразу же как получим шину.
				}
			else
				{
				TWCR = 	0<<TWSTA|
     cbc:	85 ec       	ldi	r24, 0xC5	; 197
     cbe:	80 93 bc 00 	sts	0x00BC, r24	; 0x8000bc <__TEXT_REGION_LENGTH__+0x7e00bc>
					1<<TWEA|
					1<<TWEN|
					1<<TWIE;					// Если мы там одни, то просто отдадим шину
				}
 
			MACRO_i2c_WhatDo_SlaveOut				// И отработаем выход слейва. Впрочем, он тут
     cc2:	e0 91 04 01 	lds	r30, 0x0104	; 0x800104 <SlaveOutFunc>
     cc6:	f0 91 05 01 	lds	r31, 0x0105	; 0x800105 <SlaveOutFunc+0x1>
     cca:	09 95       	icall
			break;									// Нас почтил своим визитом.
			}
 
	default:	break;
	}
}
     ccc:	ff 91       	pop	r31
     cce:	ef 91       	pop	r30
     cd0:	bf 91       	pop	r27
     cd2:	af 91       	pop	r26
     cd4:	9f 91       	pop	r25
     cd6:	8f 91       	pop	r24
     cd8:	7f 91       	pop	r23
     cda:	6f 91       	pop	r22
     cdc:	5f 91       	pop	r21
     cde:	4f 91       	pop	r20
     ce0:	3f 91       	pop	r19
     ce2:	2f 91       	pop	r18
     ce4:	0f 90       	pop	r0
     ce6:	0f be       	out	0x3f, r0	; 63
     ce8:	0f 90       	pop	r0
     cea:	1f 90       	pop	r1
     cec:	18 95       	reti

00000cee <i2c_lcd_pio>:
	{
		cl = pgm_read_byte(&pc[i]);
		i2c_lcd_cmd(a++);
		i2c_lcd_putch(cl);
	}
}
     cee:	cf 93       	push	r28
     cf0:	c8 2f       	mov	r28, r24
     cf2:	80 e7       	ldi	r24, 0x70	; 112
     cf4:	0e 94 f4 07 	call	0xfe8	; 0xfe8 <i2c_start>
     cf8:	88 e0       	ldi	r24, 0x08	; 8
     cfa:	8c 0f       	add	r24, r28
     cfc:	0e 94 24 08 	call	0x1048	; 0x1048 <i2c_write>
     d00:	0e 94 1b 08 	call	0x1036	; 0x1036 <i2c_stop>
     d04:	cf 91       	pop	r28
     d06:	08 95       	ret

00000d08 <i2c_lcd_cmd>:
     d08:	cf 93       	push	r28
     d0a:	c8 2f       	mov	r28, r24
     d0c:	80 7f       	andi	r24, 0xF0	; 240
     d0e:	84 60       	ori	r24, 0x04	; 4
     d10:	80 93 1d 02 	sts	0x021D, r24	; 0x80021d <lcd_data>
     d14:	0e 94 77 06 	call	0xcee	; 0xcee <i2c_lcd_pio>
     d18:	80 91 1d 02 	lds	r24, 0x021D	; 0x80021d <lcd_data>
     d1c:	8b 7f       	andi	r24, 0xFB	; 251
     d1e:	80 93 1d 02 	sts	0x021D, r24	; 0x80021d <lcd_data>
     d22:	0e 94 77 06 	call	0xcee	; 0xcee <i2c_lcd_pio>
     d26:	80 91 1d 02 	lds	r24, 0x021D	; 0x80021d <lcd_data>
     d2a:	0e 94 77 06 	call	0xcee	; 0xcee <i2c_lcd_pio>
     d2e:	8f e8       	ldi	r24, 0x8F	; 143
     d30:	91 e0       	ldi	r25, 0x01	; 1
     d32:	01 97       	sbiw	r24, 0x01	; 1
     d34:	f1 f7       	brne	.-4      	; 0xd32 <i2c_lcd_cmd+0x2a>
     d36:	00 c0       	rjmp	.+0      	; 0xd38 <i2c_lcd_cmd+0x30>
     d38:	00 00       	nop
     d3a:	8c 2f       	mov	r24, r28
     d3c:	82 95       	swap	r24
     d3e:	80 7f       	andi	r24, 0xF0	; 240
     d40:	84 60       	ori	r24, 0x04	; 4
     d42:	80 93 1d 02 	sts	0x021D, r24	; 0x80021d <lcd_data>
     d46:	0e 94 77 06 	call	0xcee	; 0xcee <i2c_lcd_pio>
     d4a:	80 91 1d 02 	lds	r24, 0x021D	; 0x80021d <lcd_data>
     d4e:	8b 7f       	andi	r24, 0xFB	; 251
     d50:	80 93 1d 02 	sts	0x021D, r24	; 0x80021d <lcd_data>
     d54:	0e 94 77 06 	call	0xcee	; 0xcee <i2c_lcd_pio>
     d58:	80 91 1d 02 	lds	r24, 0x021D	; 0x80021d <lcd_data>
     d5c:	0e 94 77 06 	call	0xcee	; 0xcee <i2c_lcd_pio>
     d60:	cc 7f       	andi	r28, 0xFC	; 252
     d62:	39 f0       	breq	.+14     	; 0xd72 <i2c_lcd_cmd+0x6a>
     d64:	8f e8       	ldi	r24, 0x8F	; 143
     d66:	91 e0       	ldi	r25, 0x01	; 1
     d68:	01 97       	sbiw	r24, 0x01	; 1
     d6a:	f1 f7       	brne	.-4      	; 0xd68 <i2c_lcd_cmd+0x60>
     d6c:	00 c0       	rjmp	.+0      	; 0xd6e <i2c_lcd_cmd+0x66>
     d6e:	00 00       	nop
     d70:	06 c0       	rjmp	.+12     	; 0xd7e <i2c_lcd_cmd+0x76>
     d72:	8f e3       	ldi	r24, 0x3F	; 63
     d74:	9f e1       	ldi	r25, 0x1F	; 31
     d76:	01 97       	sbiw	r24, 0x01	; 1
     d78:	f1 f7       	brne	.-4      	; 0xd76 <i2c_lcd_cmd+0x6e>
     d7a:	00 c0       	rjmp	.+0      	; 0xd7c <i2c_lcd_cmd+0x74>
     d7c:	00 00       	nop
     d7e:	cf 91       	pop	r28
     d80:	08 95       	ret

00000d82 <i2c_lcd_putch>:
     d82:	cf 93       	push	r28
     d84:	c8 2f       	mov	r28, r24
     d86:	80 7f       	andi	r24, 0xF0	; 240
     d88:	85 60       	ori	r24, 0x05	; 5
     d8a:	80 93 1d 02 	sts	0x021D, r24	; 0x80021d <lcd_data>
     d8e:	0e 94 77 06 	call	0xcee	; 0xcee <i2c_lcd_pio>
     d92:	80 91 1d 02 	lds	r24, 0x021D	; 0x80021d <lcd_data>
     d96:	8b 7f       	andi	r24, 0xFB	; 251
     d98:	80 93 1d 02 	sts	0x021D, r24	; 0x80021d <lcd_data>
     d9c:	0e 94 77 06 	call	0xcee	; 0xcee <i2c_lcd_pio>
     da0:	8f e8       	ldi	r24, 0x8F	; 143
     da2:	91 e0       	ldi	r25, 0x01	; 1
     da4:	01 97       	sbiw	r24, 0x01	; 1
     da6:	f1 f7       	brne	.-4      	; 0xda4 <i2c_lcd_putch+0x22>
     da8:	00 c0       	rjmp	.+0      	; 0xdaa <i2c_lcd_putch+0x28>
     daa:	00 00       	nop
     dac:	20 e1       	ldi	r18, 0x10	; 16
     dae:	c2 9f       	mul	r28, r18
     db0:	c0 01       	movw	r24, r0
     db2:	11 24       	eor	r1, r1
     db4:	85 60       	ori	r24, 0x05	; 5
     db6:	80 93 1d 02 	sts	0x021D, r24	; 0x80021d <lcd_data>
     dba:	0e 94 77 06 	call	0xcee	; 0xcee <i2c_lcd_pio>
     dbe:	80 91 1d 02 	lds	r24, 0x021D	; 0x80021d <lcd_data>
     dc2:	8b 7f       	andi	r24, 0xFB	; 251
     dc4:	80 93 1d 02 	sts	0x021D, r24	; 0x80021d <lcd_data>
     dc8:	0e 94 77 06 	call	0xcee	; 0xcee <i2c_lcd_pio>
     dcc:	80 91 1d 02 	lds	r24, 0x021D	; 0x80021d <lcd_data>
     dd0:	0e 94 77 06 	call	0xcee	; 0xcee <i2c_lcd_pio>
     dd4:	8f e3       	ldi	r24, 0x3F	; 63
     dd6:	9f e1       	ldi	r25, 0x1F	; 31
     dd8:	01 97       	sbiw	r24, 0x01	; 1
     dda:	f1 f7       	brne	.-4      	; 0xdd8 <i2c_lcd_putch+0x56>
     ddc:	00 c0       	rjmp	.+0      	; 0xdde <i2c_lcd_putch+0x5c>
     dde:	00 00       	nop
     de0:	cf 91       	pop	r28
     de2:	08 95       	ret

00000de4 <i2c_lcd_init>:
     de4:	80 e0       	ldi	r24, 0x00	; 0
     de6:	0e 94 77 06 	call	0xcee	; 0xcee <i2c_lcd_pio>
     dea:	2f ef       	ldi	r18, 0xFF	; 255
     dec:	83 ef       	ldi	r24, 0xF3	; 243
     dee:	91 e0       	ldi	r25, 0x01	; 1
     df0:	21 50       	subi	r18, 0x01	; 1
     df2:	80 40       	sbci	r24, 0x00	; 0
     df4:	90 40       	sbci	r25, 0x00	; 0
     df6:	e1 f7       	brne	.-8      	; 0xdf0 <i2c_lcd_init+0xc>
     df8:	00 c0       	rjmp	.+0      	; 0xdfa <i2c_lcd_init+0x16>
     dfa:	00 00       	nop
     dfc:	80 e3       	ldi	r24, 0x30	; 48
     dfe:	80 93 1d 02 	sts	0x021D, r24	; 0x80021d <lcd_data>
     e02:	0e 94 77 06 	call	0xcee	; 0xcee <i2c_lcd_pio>
     e06:	80 91 1d 02 	lds	r24, 0x021D	; 0x80021d <lcd_data>
     e0a:	84 60       	ori	r24, 0x04	; 4
     e0c:	80 93 1d 02 	sts	0x021D, r24	; 0x80021d <lcd_data>
     e10:	0e 94 77 06 	call	0xcee	; 0xcee <i2c_lcd_pio>
     e14:	80 91 1d 02 	lds	r24, 0x021D	; 0x80021d <lcd_data>
     e18:	8b 7f       	andi	r24, 0xFB	; 251
     e1a:	80 93 1d 02 	sts	0x021D, r24	; 0x80021d <lcd_data>
     e1e:	0e 94 77 06 	call	0xcee	; 0xcee <i2c_lcd_pio>
     e22:	8f e1       	ldi	r24, 0x1F	; 31
     e24:	9e e4       	ldi	r25, 0x4E	; 78
     e26:	01 97       	sbiw	r24, 0x01	; 1
     e28:	f1 f7       	brne	.-4      	; 0xe26 <i2c_lcd_init+0x42>
     e2a:	00 c0       	rjmp	.+0      	; 0xe2c <i2c_lcd_init+0x48>
     e2c:	00 00       	nop
     e2e:	80 91 1d 02 	lds	r24, 0x021D	; 0x80021d <lcd_data>
     e32:	84 60       	ori	r24, 0x04	; 4
     e34:	80 93 1d 02 	sts	0x021D, r24	; 0x80021d <lcd_data>
     e38:	0e 94 77 06 	call	0xcee	; 0xcee <i2c_lcd_pio>
     e3c:	80 91 1d 02 	lds	r24, 0x021D	; 0x80021d <lcd_data>
     e40:	8b 7f       	andi	r24, 0xFB	; 251
     e42:	80 93 1d 02 	sts	0x021D, r24	; 0x80021d <lcd_data>
     e46:	0e 94 77 06 	call	0xcee	; 0xcee <i2c_lcd_pio>
     e4a:	8f e8       	ldi	r24, 0x8F	; 143
     e4c:	91 e0       	ldi	r25, 0x01	; 1
     e4e:	01 97       	sbiw	r24, 0x01	; 1
     e50:	f1 f7       	brne	.-4      	; 0xe4e <i2c_lcd_init+0x6a>
     e52:	00 c0       	rjmp	.+0      	; 0xe54 <i2c_lcd_init+0x70>
     e54:	00 00       	nop
     e56:	80 91 1d 02 	lds	r24, 0x021D	; 0x80021d <lcd_data>
     e5a:	84 60       	ori	r24, 0x04	; 4
     e5c:	80 93 1d 02 	sts	0x021D, r24	; 0x80021d <lcd_data>
     e60:	0e 94 77 06 	call	0xcee	; 0xcee <i2c_lcd_pio>
     e64:	80 91 1d 02 	lds	r24, 0x021D	; 0x80021d <lcd_data>
     e68:	8b 7f       	andi	r24, 0xFB	; 251
     e6a:	80 93 1d 02 	sts	0x021D, r24	; 0x80021d <lcd_data>
     e6e:	0e 94 77 06 	call	0xcee	; 0xcee <i2c_lcd_pio>
     e72:	8f e8       	ldi	r24, 0x8F	; 143
     e74:	91 e0       	ldi	r25, 0x01	; 1
     e76:	01 97       	sbiw	r24, 0x01	; 1
     e78:	f1 f7       	brne	.-4      	; 0xe76 <i2c_lcd_init+0x92>
     e7a:	00 c0       	rjmp	.+0      	; 0xe7c <i2c_lcd_init+0x98>
     e7c:	00 00       	nop
     e7e:	80 e2       	ldi	r24, 0x20	; 32
     e80:	80 93 1d 02 	sts	0x021D, r24	; 0x80021d <lcd_data>
     e84:	0e 94 77 06 	call	0xcee	; 0xcee <i2c_lcd_pio>
     e88:	80 91 1d 02 	lds	r24, 0x021D	; 0x80021d <lcd_data>
     e8c:	84 60       	ori	r24, 0x04	; 4
     e8e:	80 93 1d 02 	sts	0x021D, r24	; 0x80021d <lcd_data>
     e92:	0e 94 77 06 	call	0xcee	; 0xcee <i2c_lcd_pio>
     e96:	80 91 1d 02 	lds	r24, 0x021D	; 0x80021d <lcd_data>
     e9a:	8b 7f       	andi	r24, 0xFB	; 251
     e9c:	80 93 1d 02 	sts	0x021D, r24	; 0x80021d <lcd_data>
     ea0:	0e 94 77 06 	call	0xcee	; 0xcee <i2c_lcd_pio>
     ea4:	80 91 1d 02 	lds	r24, 0x021D	; 0x80021d <lcd_data>
     ea8:	0e 94 77 06 	call	0xcee	; 0xcee <i2c_lcd_pio>
     eac:	8f e8       	ldi	r24, 0x8F	; 143
     eae:	91 e0       	ldi	r25, 0x01	; 1
     eb0:	01 97       	sbiw	r24, 0x01	; 1
     eb2:	f1 f7       	brne	.-4      	; 0xeb0 <i2c_lcd_init+0xcc>
     eb4:	00 c0       	rjmp	.+0      	; 0xeb6 <i2c_lcd_init+0xd2>
     eb6:	00 00       	nop
     eb8:	88 e2       	ldi	r24, 0x28	; 40
     eba:	0e 94 84 06 	call	0xd08	; 0xd08 <i2c_lcd_cmd>
     ebe:	88 e0       	ldi	r24, 0x08	; 8
     ec0:	0e 94 84 06 	call	0xd08	; 0xd08 <i2c_lcd_cmd>
     ec4:	80 e0       	ldi	r24, 0x00	; 0
     ec6:	0e 94 84 06 	call	0xd08	; 0xd08 <i2c_lcd_cmd>
     eca:	86 e0       	ldi	r24, 0x06	; 6
     ecc:	0e 94 84 06 	call	0xd08	; 0xd08 <i2c_lcd_cmd>
     ed0:	8c e0       	ldi	r24, 0x0C	; 12
     ed2:	0e 94 84 06 	call	0xd08	; 0xd08 <i2c_lcd_cmd>
     ed6:	08 95       	ret

00000ed8 <i2c_lcd_gotoxy>:
     ed8:	61 30       	cpi	r22, 0x01	; 1
     eda:	09 f4       	brne	.+2      	; 0xede <i2c_lcd_gotoxy+0x6>
     edc:	80 5c       	subi	r24, 0xC0	; 192
     ede:	80 68       	ori	r24, 0x80	; 128
     ee0:	0e 94 84 06 	call	0xd08	; 0xd08 <i2c_lcd_cmd>
     ee4:	08 95       	ret

00000ee6 <i2c_lcd_puts>:
     ee6:	cf 93       	push	r28
     ee8:	df 93       	push	r29
     eea:	ec 01       	movw	r28, r24
     eec:	88 81       	ld	r24, Y
     eee:	88 23       	and	r24, r24
     ef0:	31 f0       	breq	.+12     	; 0xefe <i2c_lcd_puts+0x18>
     ef2:	21 96       	adiw	r28, 0x01	; 1
     ef4:	0e 94 c1 06 	call	0xd82	; 0xd82 <i2c_lcd_putch>
     ef8:	89 91       	ld	r24, Y+
     efa:	81 11       	cpse	r24, r1
     efc:	fb cf       	rjmp	.-10     	; 0xef4 <i2c_lcd_puts+0xe>
     efe:	df 91       	pop	r29
     f00:	cf 91       	pop	r28
     f02:	08 95       	ret

00000f04 <i2c_lcd_clr>:

void i2c_lcd_clr(void)				//Clears LCD
{
	i2c_lcd_cmd(1<<LCD_CLEAR);
     f04:	81 e0       	ldi	r24, 0x01	; 1
     f06:	0e 94 84 06 	call	0xd08	; 0xd08 <i2c_lcd_cmd>
     f0a:	08 95       	ret

00000f0c <lcd_clrscr>:
	_delay_us(2);
}
*/

void lcd_clrscr(unsigned char data)
{
     f0c:	cf 93       	push	r28
     unsigned char i = 0;
     if (data == 1)
     f0e:	81 30       	cpi	r24, 0x01	; 1
     f10:	79 f4       	brne	.+30     	; 0xf30 <lcd_clrscr+0x24>
     {
       i2c_lcd_gotoxy(0, 0);
     f12:	60 e0       	ldi	r22, 0x00	; 0
     f14:	80 e0       	ldi	r24, 0x00	; 0
     f16:	0e 94 6c 07 	call	0xed8	; 0xed8 <i2c_lcd_gotoxy>
     f1a:	c0 e1       	ldi	r28, 0x10	; 16
	for (i=0; i<16; i++)
        	i2c_lcd_putch(' ');
     f1c:	80 e2       	ldi	r24, 0x20	; 32
     f1e:	0e 94 c1 06 	call	0xd82	; 0xd82 <i2c_lcd_putch>
     f22:	c1 50       	subi	r28, 0x01	; 1
{
     unsigned char i = 0;
     if (data == 1)
     {
       i2c_lcd_gotoxy(0, 0);
	for (i=0; i<16; i++)
     f24:	d9 f7       	brne	.-10     	; 0xf1c <lcd_clrscr+0x10>
        	i2c_lcd_putch(' ');
        i2c_lcd_gotoxy(0, 0);
     f26:	60 e0       	ldi	r22, 0x00	; 0
     f28:	80 e0       	ldi	r24, 0x00	; 0
     f2a:	0e 94 6c 07 	call	0xed8	; 0xed8 <i2c_lcd_gotoxy>
     f2e:	15 c0       	rjmp	.+42     	; 0xf5a <lcd_clrscr+0x4e>
     }
     
     if (data == 2)
     f30:	82 30       	cpi	r24, 0x02	; 2
     f32:	79 f4       	brne	.+30     	; 0xf52 <lcd_clrscr+0x46>
     {
        i2c_lcd_gotoxy(0, 1);
     f34:	61 e0       	ldi	r22, 0x01	; 1
     f36:	80 e0       	ldi	r24, 0x00	; 0
     f38:	0e 94 6c 07 	call	0xed8	; 0xed8 <i2c_lcd_gotoxy>
     f3c:	c0 e1       	ldi	r28, 0x10	; 16
	for (i=0; i<16; i++)
        	i2c_lcd_putch(' ');
     f3e:	80 e2       	ldi	r24, 0x20	; 32
     f40:	0e 94 c1 06 	call	0xd82	; 0xd82 <i2c_lcd_putch>
     f44:	c1 50       	subi	r28, 0x01	; 1
     }
     
     if (data == 2)
     {
        i2c_lcd_gotoxy(0, 1);
	for (i=0; i<16; i++)
     f46:	d9 f7       	brne	.-10     	; 0xf3e <lcd_clrscr+0x32>
        	i2c_lcd_putch(' ');
        i2c_lcd_gotoxy(0, 1);
     f48:	61 e0       	ldi	r22, 0x01	; 1
     f4a:	80 e0       	ldi	r24, 0x00	; 0
     f4c:	0e 94 6c 07 	call	0xed8	; 0xed8 <i2c_lcd_gotoxy>
     f50:	04 c0       	rjmp	.+8      	; 0xf5a <lcd_clrscr+0x4e>
     }
     
     if (data == 3)
     f52:	83 30       	cpi	r24, 0x03	; 3
     f54:	11 f4       	brne	.+4      	; 0xf5a <lcd_clrscr+0x4e>
     {
        /*Clear display*/
        i2c_lcd_clr();
     f56:	0e 94 82 07 	call	0xf04	; 0xf04 <i2c_lcd_clr>
        //_delay_us(120);         //Delay after clearing display
     }
}
     f5a:	cf 91       	pop	r28
     f5c:	08 95       	ret

00000f5e <Menu_GetCurrentMenu>:


Menu_Item_t* Menu_GetCurrentMenu(void)
{
	return CurrentMenuItem;
}
     f5e:	80 91 08 01 	lds	r24, 0x0108	; 0x800108 <CurrentMenuItem>
     f62:	90 91 09 01 	lds	r25, 0x0109	; 0x800109 <CurrentMenuItem+0x1>
     f66:	08 95       	ret

00000f68 <Menu_Navigate>:

void Menu_Navigate(Menu_Item_t* const NewMenu)
{
	if ((NewMenu == &NULL_MENU) || (NewMenu == NULL))
     f68:	22 e0       	ldi	r18, 0x02	; 2
     f6a:	8b 35       	cpi	r24, 0x5B	; 91
     f6c:	92 07       	cpc	r25, r18
     f6e:	f1 f0       	breq	.+60     	; 0xfac <Menu_Navigate+0x44>
     f70:	00 97       	sbiw	r24, 0x00	; 0
     f72:	e1 f0       	breq	.+56     	; 0xfac <Menu_Navigate+0x44>
     f74:	dc 01       	movw	r26, r24
		return;

	CurrentMenuItem = NewMenu;
     f76:	90 93 09 01 	sts	0x0109, r25	; 0x800109 <CurrentMenuItem+0x1>
     f7a:	80 93 08 01 	sts	0x0108, r24	; 0x800108 <CurrentMenuItem>

	if (MenuWriteFunc)
     f7e:	e0 91 84 01 	lds	r30, 0x0184	; 0x800184 <MenuWriteFunc>
     f82:	f0 91 85 01 	lds	r31, 0x0185	; 0x800185 <MenuWriteFunc+0x1>
     f86:	30 97       	sbiw	r30, 0x00	; 0
     f88:	31 f0       	breq	.+12     	; 0xf96 <Menu_Navigate+0x2e>
		MenuWriteFunc(CurrentMenuItem->Child->Text);
     f8a:	16 96       	adiw	r26, 0x06	; 6
     f8c:	8d 91       	ld	r24, X+
     f8e:	9c 91       	ld	r25, X
     f90:	17 97       	sbiw	r26, 0x07	; 7
     f92:	0c 96       	adiw	r24, 0x0c	; 12
     f94:	09 95       	icall

	//i2c_lcd_puts(CurrentMenuItem->Text);

	void (*SelectCallback)(void) = MENU_ITEM_READ_POINTER(&CurrentMenuItem->SelectCallback);
     f96:	e0 91 08 01 	lds	r30, 0x0108	; 0x800108 <CurrentMenuItem>
     f9a:	f0 91 09 01 	lds	r31, 0x0109	; 0x800109 <CurrentMenuItem+0x1>
     f9e:	38 96       	adiw	r30, 0x08	; 8
     fa0:	85 91       	lpm	r24, Z+
     fa2:	94 91       	lpm	r25, Z

	if (SelectCallback)
     fa4:	00 97       	sbiw	r24, 0x00	; 0
     fa6:	11 f0       	breq	.+4      	; 0xfac <Menu_Navigate+0x44>
		SelectCallback();
     fa8:	fc 01       	movw	r30, r24
     faa:	09 95       	icall
     fac:	08 95       	ret

00000fae <Menu_SetGenericWriteCallback>:
}

void Menu_SetGenericWriteCallback(void (*WriteFunc)(const char* Text))
{
	MenuWriteFunc = WriteFunc;
     fae:	90 93 85 01 	sts	0x0185, r25	; 0x800185 <MenuWriteFunc+0x1>
     fb2:	80 93 84 01 	sts	0x0184, r24	; 0x800184 <MenuWriteFunc>
	Menu_Navigate(CurrentMenuItem);
     fb6:	80 91 08 01 	lds	r24, 0x0108	; 0x800108 <CurrentMenuItem>
     fba:	90 91 09 01 	lds	r25, 0x0109	; 0x800109 <CurrentMenuItem+0x1>
     fbe:	0e 94 b4 07 	call	0xf68	; 0xf68 <Menu_Navigate>
     fc2:	08 95       	ret

00000fc4 <Menu_EnterCurrentItem>:
}

void Menu_EnterCurrentItem(void)
{
	if ((CurrentMenuItem == &NULL_MENU) || (CurrentMenuItem == NULL))
     fc4:	e0 91 08 01 	lds	r30, 0x0108	; 0x800108 <CurrentMenuItem>
     fc8:	f0 91 09 01 	lds	r31, 0x0109	; 0x800109 <CurrentMenuItem+0x1>
     fcc:	82 e0       	ldi	r24, 0x02	; 2
     fce:	eb 35       	cpi	r30, 0x5B	; 91
     fd0:	f8 07       	cpc	r31, r24
     fd2:	49 f0       	breq	.+18     	; 0xfe6 <Menu_EnterCurrentItem+0x22>
     fd4:	30 97       	sbiw	r30, 0x00	; 0
     fd6:	39 f0       	breq	.+14     	; 0xfe6 <Menu_EnterCurrentItem+0x22>
		return;

	void (*EnterCallback)(void) = MENU_ITEM_READ_POINTER(&CurrentMenuItem->EnterCallback);
     fd8:	3a 96       	adiw	r30, 0x0a	; 10
     fda:	85 91       	lpm	r24, Z+
     fdc:	94 91       	lpm	r25, Z

	if (EnterCallback)
     fde:	00 97       	sbiw	r24, 0x00	; 0
     fe0:	11 f0       	breq	.+4      	; 0xfe6 <Menu_EnterCurrentItem+0x22>
		EnterCallback();
     fe2:	fc 01       	movw	r30, r24
     fe4:	09 95       	icall
     fe6:	08 95       	ret

00000fe8 <i2c_start>:
*************************************************************************/
unsigned char i2c_rep_start(unsigned char address)
{
    return i2c_start( address );

}/* i2c_rep_start */
     fe8:	94 ea       	ldi	r25, 0xA4	; 164
     fea:	90 93 bc 00 	sts	0x00BC, r25	; 0x8000bc <__TEXT_REGION_LENGTH__+0x7e00bc>
     fee:	ec eb       	ldi	r30, 0xBC	; 188
     ff0:	f0 e0       	ldi	r31, 0x00	; 0
     ff2:	90 81       	ld	r25, Z
     ff4:	99 23       	and	r25, r25
     ff6:	ec f7       	brge	.-6      	; 0xff2 <i2c_start+0xa>
     ff8:	90 91 b9 00 	lds	r25, 0x00B9	; 0x8000b9 <__TEXT_REGION_LENGTH__+0x7e00b9>
     ffc:	98 7f       	andi	r25, 0xF8	; 248
     ffe:	98 30       	cpi	r25, 0x08	; 8
    1000:	11 f0       	breq	.+4      	; 0x1006 <i2c_start+0x1e>
    1002:	90 31       	cpi	r25, 0x10	; 16
    1004:	a1 f4       	brne	.+40     	; 0x102e <i2c_start+0x46>
    1006:	80 93 bb 00 	sts	0x00BB, r24	; 0x8000bb <__TEXT_REGION_LENGTH__+0x7e00bb>
    100a:	84 e8       	ldi	r24, 0x84	; 132
    100c:	80 93 bc 00 	sts	0x00BC, r24	; 0x8000bc <__TEXT_REGION_LENGTH__+0x7e00bc>
    1010:	ec eb       	ldi	r30, 0xBC	; 188
    1012:	f0 e0       	ldi	r31, 0x00	; 0
    1014:	80 81       	ld	r24, Z
    1016:	88 23       	and	r24, r24
    1018:	ec f7       	brge	.-6      	; 0x1014 <i2c_start+0x2c>
    101a:	90 91 b9 00 	lds	r25, 0x00B9	; 0x8000b9 <__TEXT_REGION_LENGTH__+0x7e00b9>
    101e:	98 7f       	andi	r25, 0xF8	; 248
    1020:	98 31       	cpi	r25, 0x18	; 24
    1022:	39 f0       	breq	.+14     	; 0x1032 <i2c_start+0x4a>
    1024:	81 e0       	ldi	r24, 0x01	; 1
    1026:	90 34       	cpi	r25, 0x40	; 64
    1028:	29 f4       	brne	.+10     	; 0x1034 <i2c_start+0x4c>
    102a:	80 e0       	ldi	r24, 0x00	; 0
    102c:	08 95       	ret
    102e:	81 e0       	ldi	r24, 0x01	; 1
    1030:	08 95       	ret
    1032:	80 e0       	ldi	r24, 0x00	; 0
    1034:	08 95       	ret

00001036 <i2c_stop>:
 Terminates the data transfer and releases the I2C bus
*************************************************************************/
void i2c_stop(void)
{
    /* send stop condition */
	TWCR = (1<<TWINT) | (1<<TWEN) | (1<<TWSTO);
    1036:	84 e9       	ldi	r24, 0x94	; 148
    1038:	80 93 bc 00 	sts	0x00BC, r24	; 0x8000bc <__TEXT_REGION_LENGTH__+0x7e00bc>
	
	// wait until stop condition is executed and bus released
	while(TWCR & (1<<TWSTO));
    103c:	ec eb       	ldi	r30, 0xBC	; 188
    103e:	f0 e0       	ldi	r31, 0x00	; 0
    1040:	80 81       	ld	r24, Z
    1042:	84 fd       	sbrc	r24, 4
    1044:	fd cf       	rjmp	.-6      	; 0x1040 <i2c_stop+0xa>

}/* i2c_stop */
    1046:	08 95       	ret

00001048 <i2c_write>:
unsigned char i2c_write( unsigned char data )
{	
    uint8_t   twst;
    
	// send data to the previously addressed device
	TWDR = data;
    1048:	80 93 bb 00 	sts	0x00BB, r24	; 0x8000bb <__TEXT_REGION_LENGTH__+0x7e00bb>
	TWCR = (1<<TWINT) | (1<<TWEN);
    104c:	84 e8       	ldi	r24, 0x84	; 132
    104e:	80 93 bc 00 	sts	0x00BC, r24	; 0x8000bc <__TEXT_REGION_LENGTH__+0x7e00bc>

	// wait until transmission completed
	while(!(TWCR & (1<<TWINT)));
    1052:	ec eb       	ldi	r30, 0xBC	; 188
    1054:	f0 e0       	ldi	r31, 0x00	; 0
    1056:	80 81       	ld	r24, Z
    1058:	88 23       	and	r24, r24
    105a:	ec f7       	brge	.-6      	; 0x1056 <i2c_write+0xe>

	// check value of TWI Status Register. Mask prescaler bits
	twst = TW_STATUS & 0xF8;
    105c:	90 91 b9 00 	lds	r25, 0x00B9	; 0x8000b9 <__TEXT_REGION_LENGTH__+0x7e00b9>
    1060:	98 7f       	andi	r25, 0xF8	; 248
	if( twst != TW_MT_DATA_ACK) return 1;
    1062:	81 e0       	ldi	r24, 0x01	; 1
    1064:	98 32       	cpi	r25, 0x28	; 40
    1066:	09 f4       	brne	.+2      	; 0x106a <i2c_write+0x22>
    1068:	80 e0       	ldi	r24, 0x00	; 0
	return 0;

}/* i2c_write */
    106a:	08 95       	ret

0000106c <__tablejump2__>:
    106c:	ee 0f       	add	r30, r30
    106e:	ff 1f       	adc	r31, r31
    1070:	05 90       	lpm	r0, Z+
    1072:	f4 91       	lpm	r31, Z
    1074:	e0 2d       	mov	r30, r0
    1076:	09 94       	ijmp

00001078 <sprintf>:
    1078:	ae e0       	ldi	r26, 0x0E	; 14
    107a:	b0 e0       	ldi	r27, 0x00	; 0
    107c:	e2 e4       	ldi	r30, 0x42	; 66
    107e:	f8 e0       	ldi	r31, 0x08	; 8
    1080:	0c 94 eb 0a 	jmp	0x15d6	; 0x15d6 <__prologue_saves__+0x1c>
    1084:	0d 89       	ldd	r16, Y+21	; 0x15
    1086:	1e 89       	ldd	r17, Y+22	; 0x16
    1088:	86 e0       	ldi	r24, 0x06	; 6
    108a:	8c 83       	std	Y+4, r24	; 0x04
    108c:	1a 83       	std	Y+2, r17	; 0x02
    108e:	09 83       	std	Y+1, r16	; 0x01
    1090:	8f ef       	ldi	r24, 0xFF	; 255
    1092:	9f e7       	ldi	r25, 0x7F	; 127
    1094:	9e 83       	std	Y+6, r25	; 0x06
    1096:	8d 83       	std	Y+5, r24	; 0x05
    1098:	ae 01       	movw	r20, r28
    109a:	47 5e       	subi	r20, 0xE7	; 231
    109c:	5f 4f       	sbci	r21, 0xFF	; 255
    109e:	6f 89       	ldd	r22, Y+23	; 0x17
    10a0:	78 8d       	ldd	r23, Y+24	; 0x18
    10a2:	ce 01       	movw	r24, r28
    10a4:	01 96       	adiw	r24, 0x01	; 1
    10a6:	0e 94 5f 08 	call	0x10be	; 0x10be <vfprintf>
    10aa:	2f 81       	ldd	r18, Y+7	; 0x07
    10ac:	38 85       	ldd	r19, Y+8	; 0x08
    10ae:	f8 01       	movw	r30, r16
    10b0:	e2 0f       	add	r30, r18
    10b2:	f3 1f       	adc	r31, r19
    10b4:	10 82       	st	Z, r1
    10b6:	2e 96       	adiw	r28, 0x0e	; 14
    10b8:	e4 e0       	ldi	r30, 0x04	; 4
    10ba:	0c 94 07 0b 	jmp	0x160e	; 0x160e <__epilogue_restores__+0x1c>

000010be <vfprintf>:
    10be:	ac e0       	ldi	r26, 0x0C	; 12
    10c0:	b0 e0       	ldi	r27, 0x00	; 0
    10c2:	e5 e6       	ldi	r30, 0x65	; 101
    10c4:	f8 e0       	ldi	r31, 0x08	; 8
    10c6:	0c 94 dd 0a 	jmp	0x15ba	; 0x15ba <__prologue_saves__>
    10ca:	7c 01       	movw	r14, r24
    10cc:	6b 01       	movw	r12, r22
    10ce:	8a 01       	movw	r16, r20
    10d0:	fc 01       	movw	r30, r24
    10d2:	17 82       	std	Z+7, r1	; 0x07
    10d4:	16 82       	std	Z+6, r1	; 0x06
    10d6:	83 81       	ldd	r24, Z+3	; 0x03
    10d8:	81 ff       	sbrs	r24, 1
    10da:	bd c1       	rjmp	.+890    	; 0x1456 <vfprintf+0x398>
    10dc:	ce 01       	movw	r24, r28
    10de:	01 96       	adiw	r24, 0x01	; 1
    10e0:	4c 01       	movw	r8, r24
    10e2:	f7 01       	movw	r30, r14
    10e4:	93 81       	ldd	r25, Z+3	; 0x03
    10e6:	f6 01       	movw	r30, r12
    10e8:	93 fd       	sbrc	r25, 3
    10ea:	85 91       	lpm	r24, Z+
    10ec:	93 ff       	sbrs	r25, 3
    10ee:	81 91       	ld	r24, Z+
    10f0:	6f 01       	movw	r12, r30
    10f2:	88 23       	and	r24, r24
    10f4:	09 f4       	brne	.+2      	; 0x10f8 <vfprintf+0x3a>
    10f6:	ab c1       	rjmp	.+854    	; 0x144e <vfprintf+0x390>
    10f8:	85 32       	cpi	r24, 0x25	; 37
    10fa:	39 f4       	brne	.+14     	; 0x110a <vfprintf+0x4c>
    10fc:	93 fd       	sbrc	r25, 3
    10fe:	85 91       	lpm	r24, Z+
    1100:	93 ff       	sbrs	r25, 3
    1102:	81 91       	ld	r24, Z+
    1104:	6f 01       	movw	r12, r30
    1106:	85 32       	cpi	r24, 0x25	; 37
    1108:	29 f4       	brne	.+10     	; 0x1114 <vfprintf+0x56>
    110a:	b7 01       	movw	r22, r14
    110c:	90 e0       	ldi	r25, 0x00	; 0
    110e:	0e 94 47 0a 	call	0x148e	; 0x148e <fputc>
    1112:	e7 cf       	rjmp	.-50     	; 0x10e2 <vfprintf+0x24>
    1114:	51 2c       	mov	r5, r1
    1116:	31 2c       	mov	r3, r1
    1118:	20 e0       	ldi	r18, 0x00	; 0
    111a:	20 32       	cpi	r18, 0x20	; 32
    111c:	a0 f4       	brcc	.+40     	; 0x1146 <vfprintf+0x88>
    111e:	8b 32       	cpi	r24, 0x2B	; 43
    1120:	69 f0       	breq	.+26     	; 0x113c <vfprintf+0x7e>
    1122:	30 f4       	brcc	.+12     	; 0x1130 <vfprintf+0x72>
    1124:	80 32       	cpi	r24, 0x20	; 32
    1126:	59 f0       	breq	.+22     	; 0x113e <vfprintf+0x80>
    1128:	83 32       	cpi	r24, 0x23	; 35
    112a:	69 f4       	brne	.+26     	; 0x1146 <vfprintf+0x88>
    112c:	20 61       	ori	r18, 0x10	; 16
    112e:	2c c0       	rjmp	.+88     	; 0x1188 <vfprintf+0xca>
    1130:	8d 32       	cpi	r24, 0x2D	; 45
    1132:	39 f0       	breq	.+14     	; 0x1142 <vfprintf+0x84>
    1134:	80 33       	cpi	r24, 0x30	; 48
    1136:	39 f4       	brne	.+14     	; 0x1146 <vfprintf+0x88>
    1138:	21 60       	ori	r18, 0x01	; 1
    113a:	26 c0       	rjmp	.+76     	; 0x1188 <vfprintf+0xca>
    113c:	22 60       	ori	r18, 0x02	; 2
    113e:	24 60       	ori	r18, 0x04	; 4
    1140:	23 c0       	rjmp	.+70     	; 0x1188 <vfprintf+0xca>
    1142:	28 60       	ori	r18, 0x08	; 8
    1144:	21 c0       	rjmp	.+66     	; 0x1188 <vfprintf+0xca>
    1146:	27 fd       	sbrc	r18, 7
    1148:	27 c0       	rjmp	.+78     	; 0x1198 <vfprintf+0xda>
    114a:	30 ed       	ldi	r19, 0xD0	; 208
    114c:	38 0f       	add	r19, r24
    114e:	3a 30       	cpi	r19, 0x0A	; 10
    1150:	78 f4       	brcc	.+30     	; 0x1170 <vfprintf+0xb2>
    1152:	26 ff       	sbrs	r18, 6
    1154:	06 c0       	rjmp	.+12     	; 0x1162 <vfprintf+0xa4>
    1156:	fa e0       	ldi	r31, 0x0A	; 10
    1158:	5f 9e       	mul	r5, r31
    115a:	30 0d       	add	r19, r0
    115c:	11 24       	eor	r1, r1
    115e:	53 2e       	mov	r5, r19
    1160:	13 c0       	rjmp	.+38     	; 0x1188 <vfprintf+0xca>
    1162:	8a e0       	ldi	r24, 0x0A	; 10
    1164:	38 9e       	mul	r3, r24
    1166:	30 0d       	add	r19, r0
    1168:	11 24       	eor	r1, r1
    116a:	33 2e       	mov	r3, r19
    116c:	20 62       	ori	r18, 0x20	; 32
    116e:	0c c0       	rjmp	.+24     	; 0x1188 <vfprintf+0xca>
    1170:	8e 32       	cpi	r24, 0x2E	; 46
    1172:	21 f4       	brne	.+8      	; 0x117c <vfprintf+0xbe>
    1174:	26 fd       	sbrc	r18, 6
    1176:	6b c1       	rjmp	.+726    	; 0x144e <vfprintf+0x390>
    1178:	20 64       	ori	r18, 0x40	; 64
    117a:	06 c0       	rjmp	.+12     	; 0x1188 <vfprintf+0xca>
    117c:	8c 36       	cpi	r24, 0x6C	; 108
    117e:	11 f4       	brne	.+4      	; 0x1184 <vfprintf+0xc6>
    1180:	20 68       	ori	r18, 0x80	; 128
    1182:	02 c0       	rjmp	.+4      	; 0x1188 <vfprintf+0xca>
    1184:	88 36       	cpi	r24, 0x68	; 104
    1186:	41 f4       	brne	.+16     	; 0x1198 <vfprintf+0xda>
    1188:	f6 01       	movw	r30, r12
    118a:	93 fd       	sbrc	r25, 3
    118c:	85 91       	lpm	r24, Z+
    118e:	93 ff       	sbrs	r25, 3
    1190:	81 91       	ld	r24, Z+
    1192:	6f 01       	movw	r12, r30
    1194:	81 11       	cpse	r24, r1
    1196:	c1 cf       	rjmp	.-126    	; 0x111a <vfprintf+0x5c>
    1198:	98 2f       	mov	r25, r24
    119a:	9f 7d       	andi	r25, 0xDF	; 223
    119c:	95 54       	subi	r25, 0x45	; 69
    119e:	93 30       	cpi	r25, 0x03	; 3
    11a0:	28 f4       	brcc	.+10     	; 0x11ac <vfprintf+0xee>
    11a2:	0c 5f       	subi	r16, 0xFC	; 252
    11a4:	1f 4f       	sbci	r17, 0xFF	; 255
    11a6:	ff e3       	ldi	r31, 0x3F	; 63
    11a8:	f9 83       	std	Y+1, r31	; 0x01
    11aa:	0d c0       	rjmp	.+26     	; 0x11c6 <vfprintf+0x108>
    11ac:	83 36       	cpi	r24, 0x63	; 99
    11ae:	31 f0       	breq	.+12     	; 0x11bc <vfprintf+0xfe>
    11b0:	83 37       	cpi	r24, 0x73	; 115
    11b2:	71 f0       	breq	.+28     	; 0x11d0 <vfprintf+0x112>
    11b4:	83 35       	cpi	r24, 0x53	; 83
    11b6:	09 f0       	breq	.+2      	; 0x11ba <vfprintf+0xfc>
    11b8:	5b c0       	rjmp	.+182    	; 0x1270 <vfprintf+0x1b2>
    11ba:	22 c0       	rjmp	.+68     	; 0x1200 <vfprintf+0x142>
    11bc:	f8 01       	movw	r30, r16
    11be:	80 81       	ld	r24, Z
    11c0:	89 83       	std	Y+1, r24	; 0x01
    11c2:	0e 5f       	subi	r16, 0xFE	; 254
    11c4:	1f 4f       	sbci	r17, 0xFF	; 255
    11c6:	44 24       	eor	r4, r4
    11c8:	43 94       	inc	r4
    11ca:	51 2c       	mov	r5, r1
    11cc:	54 01       	movw	r10, r8
    11ce:	15 c0       	rjmp	.+42     	; 0x11fa <vfprintf+0x13c>
    11d0:	38 01       	movw	r6, r16
    11d2:	f2 e0       	ldi	r31, 0x02	; 2
    11d4:	6f 0e       	add	r6, r31
    11d6:	71 1c       	adc	r7, r1
    11d8:	f8 01       	movw	r30, r16
    11da:	a0 80       	ld	r10, Z
    11dc:	b1 80       	ldd	r11, Z+1	; 0x01
    11de:	26 ff       	sbrs	r18, 6
    11e0:	03 c0       	rjmp	.+6      	; 0x11e8 <vfprintf+0x12a>
    11e2:	65 2d       	mov	r22, r5
    11e4:	70 e0       	ldi	r23, 0x00	; 0
    11e6:	02 c0       	rjmp	.+4      	; 0x11ec <vfprintf+0x12e>
    11e8:	6f ef       	ldi	r22, 0xFF	; 255
    11ea:	7f ef       	ldi	r23, 0xFF	; 255
    11ec:	c5 01       	movw	r24, r10
    11ee:	2c 87       	std	Y+12, r18	; 0x0c
    11f0:	0e 94 3c 0a 	call	0x1478	; 0x1478 <strnlen>
    11f4:	2c 01       	movw	r4, r24
    11f6:	83 01       	movw	r16, r6
    11f8:	2c 85       	ldd	r18, Y+12	; 0x0c
    11fa:	2f 77       	andi	r18, 0x7F	; 127
    11fc:	22 2e       	mov	r2, r18
    11fe:	17 c0       	rjmp	.+46     	; 0x122e <vfprintf+0x170>
    1200:	38 01       	movw	r6, r16
    1202:	f2 e0       	ldi	r31, 0x02	; 2
    1204:	6f 0e       	add	r6, r31
    1206:	71 1c       	adc	r7, r1
    1208:	f8 01       	movw	r30, r16
    120a:	a0 80       	ld	r10, Z
    120c:	b1 80       	ldd	r11, Z+1	; 0x01
    120e:	26 ff       	sbrs	r18, 6
    1210:	03 c0       	rjmp	.+6      	; 0x1218 <vfprintf+0x15a>
    1212:	65 2d       	mov	r22, r5
    1214:	70 e0       	ldi	r23, 0x00	; 0
    1216:	02 c0       	rjmp	.+4      	; 0x121c <vfprintf+0x15e>
    1218:	6f ef       	ldi	r22, 0xFF	; 255
    121a:	7f ef       	ldi	r23, 0xFF	; 255
    121c:	c5 01       	movw	r24, r10
    121e:	2c 87       	std	Y+12, r18	; 0x0c
    1220:	0e 94 31 0a 	call	0x1462	; 0x1462 <strnlen_P>
    1224:	2c 01       	movw	r4, r24
    1226:	2c 85       	ldd	r18, Y+12	; 0x0c
    1228:	20 68       	ori	r18, 0x80	; 128
    122a:	22 2e       	mov	r2, r18
    122c:	83 01       	movw	r16, r6
    122e:	23 fc       	sbrc	r2, 3
    1230:	1b c0       	rjmp	.+54     	; 0x1268 <vfprintf+0x1aa>
    1232:	83 2d       	mov	r24, r3
    1234:	90 e0       	ldi	r25, 0x00	; 0
    1236:	48 16       	cp	r4, r24
    1238:	59 06       	cpc	r5, r25
    123a:	b0 f4       	brcc	.+44     	; 0x1268 <vfprintf+0x1aa>
    123c:	b7 01       	movw	r22, r14
    123e:	80 e2       	ldi	r24, 0x20	; 32
    1240:	90 e0       	ldi	r25, 0x00	; 0
    1242:	0e 94 47 0a 	call	0x148e	; 0x148e <fputc>
    1246:	3a 94       	dec	r3
    1248:	f4 cf       	rjmp	.-24     	; 0x1232 <vfprintf+0x174>
    124a:	f5 01       	movw	r30, r10
    124c:	27 fc       	sbrc	r2, 7
    124e:	85 91       	lpm	r24, Z+
    1250:	27 fe       	sbrs	r2, 7
    1252:	81 91       	ld	r24, Z+
    1254:	5f 01       	movw	r10, r30
    1256:	b7 01       	movw	r22, r14
    1258:	90 e0       	ldi	r25, 0x00	; 0
    125a:	0e 94 47 0a 	call	0x148e	; 0x148e <fputc>
    125e:	31 10       	cpse	r3, r1
    1260:	3a 94       	dec	r3
    1262:	f1 e0       	ldi	r31, 0x01	; 1
    1264:	4f 1a       	sub	r4, r31
    1266:	51 08       	sbc	r5, r1
    1268:	41 14       	cp	r4, r1
    126a:	51 04       	cpc	r5, r1
    126c:	71 f7       	brne	.-36     	; 0x124a <vfprintf+0x18c>
    126e:	e5 c0       	rjmp	.+458    	; 0x143a <vfprintf+0x37c>
    1270:	84 36       	cpi	r24, 0x64	; 100
    1272:	11 f0       	breq	.+4      	; 0x1278 <vfprintf+0x1ba>
    1274:	89 36       	cpi	r24, 0x69	; 105
    1276:	39 f5       	brne	.+78     	; 0x12c6 <vfprintf+0x208>
    1278:	f8 01       	movw	r30, r16
    127a:	27 ff       	sbrs	r18, 7
    127c:	07 c0       	rjmp	.+14     	; 0x128c <vfprintf+0x1ce>
    127e:	60 81       	ld	r22, Z
    1280:	71 81       	ldd	r23, Z+1	; 0x01
    1282:	82 81       	ldd	r24, Z+2	; 0x02
    1284:	93 81       	ldd	r25, Z+3	; 0x03
    1286:	0c 5f       	subi	r16, 0xFC	; 252
    1288:	1f 4f       	sbci	r17, 0xFF	; 255
    128a:	08 c0       	rjmp	.+16     	; 0x129c <vfprintf+0x1de>
    128c:	60 81       	ld	r22, Z
    128e:	71 81       	ldd	r23, Z+1	; 0x01
    1290:	07 2e       	mov	r0, r23
    1292:	00 0c       	add	r0, r0
    1294:	88 0b       	sbc	r24, r24
    1296:	99 0b       	sbc	r25, r25
    1298:	0e 5f       	subi	r16, 0xFE	; 254
    129a:	1f 4f       	sbci	r17, 0xFF	; 255
    129c:	2f 76       	andi	r18, 0x6F	; 111
    129e:	72 2e       	mov	r7, r18
    12a0:	97 ff       	sbrs	r25, 7
    12a2:	09 c0       	rjmp	.+18     	; 0x12b6 <vfprintf+0x1f8>
    12a4:	90 95       	com	r25
    12a6:	80 95       	com	r24
    12a8:	70 95       	com	r23
    12aa:	61 95       	neg	r22
    12ac:	7f 4f       	sbci	r23, 0xFF	; 255
    12ae:	8f 4f       	sbci	r24, 0xFF	; 255
    12b0:	9f 4f       	sbci	r25, 0xFF	; 255
    12b2:	20 68       	ori	r18, 0x80	; 128
    12b4:	72 2e       	mov	r7, r18
    12b6:	2a e0       	ldi	r18, 0x0A	; 10
    12b8:	30 e0       	ldi	r19, 0x00	; 0
    12ba:	a4 01       	movw	r20, r8
    12bc:	0e 94 7f 0a 	call	0x14fe	; 0x14fe <__ultoa_invert>
    12c0:	a8 2e       	mov	r10, r24
    12c2:	a8 18       	sub	r10, r8
    12c4:	44 c0       	rjmp	.+136    	; 0x134e <vfprintf+0x290>
    12c6:	85 37       	cpi	r24, 0x75	; 117
    12c8:	29 f4       	brne	.+10     	; 0x12d4 <vfprintf+0x216>
    12ca:	2f 7e       	andi	r18, 0xEF	; 239
    12cc:	b2 2e       	mov	r11, r18
    12ce:	2a e0       	ldi	r18, 0x0A	; 10
    12d0:	30 e0       	ldi	r19, 0x00	; 0
    12d2:	25 c0       	rjmp	.+74     	; 0x131e <vfprintf+0x260>
    12d4:	f2 2f       	mov	r31, r18
    12d6:	f9 7f       	andi	r31, 0xF9	; 249
    12d8:	bf 2e       	mov	r11, r31
    12da:	8f 36       	cpi	r24, 0x6F	; 111
    12dc:	c1 f0       	breq	.+48     	; 0x130e <vfprintf+0x250>
    12de:	18 f4       	brcc	.+6      	; 0x12e6 <vfprintf+0x228>
    12e0:	88 35       	cpi	r24, 0x58	; 88
    12e2:	79 f0       	breq	.+30     	; 0x1302 <vfprintf+0x244>
    12e4:	b4 c0       	rjmp	.+360    	; 0x144e <vfprintf+0x390>
    12e6:	80 37       	cpi	r24, 0x70	; 112
    12e8:	19 f0       	breq	.+6      	; 0x12f0 <vfprintf+0x232>
    12ea:	88 37       	cpi	r24, 0x78	; 120
    12ec:	21 f0       	breq	.+8      	; 0x12f6 <vfprintf+0x238>
    12ee:	af c0       	rjmp	.+350    	; 0x144e <vfprintf+0x390>
    12f0:	2f 2f       	mov	r18, r31
    12f2:	20 61       	ori	r18, 0x10	; 16
    12f4:	b2 2e       	mov	r11, r18
    12f6:	b4 fe       	sbrs	r11, 4
    12f8:	0d c0       	rjmp	.+26     	; 0x1314 <vfprintf+0x256>
    12fa:	8b 2d       	mov	r24, r11
    12fc:	84 60       	ori	r24, 0x04	; 4
    12fe:	b8 2e       	mov	r11, r24
    1300:	09 c0       	rjmp	.+18     	; 0x1314 <vfprintf+0x256>
    1302:	24 ff       	sbrs	r18, 4
    1304:	0a c0       	rjmp	.+20     	; 0x131a <vfprintf+0x25c>
    1306:	9f 2f       	mov	r25, r31
    1308:	96 60       	ori	r25, 0x06	; 6
    130a:	b9 2e       	mov	r11, r25
    130c:	06 c0       	rjmp	.+12     	; 0x131a <vfprintf+0x25c>
    130e:	28 e0       	ldi	r18, 0x08	; 8
    1310:	30 e0       	ldi	r19, 0x00	; 0
    1312:	05 c0       	rjmp	.+10     	; 0x131e <vfprintf+0x260>
    1314:	20 e1       	ldi	r18, 0x10	; 16
    1316:	30 e0       	ldi	r19, 0x00	; 0
    1318:	02 c0       	rjmp	.+4      	; 0x131e <vfprintf+0x260>
    131a:	20 e1       	ldi	r18, 0x10	; 16
    131c:	32 e0       	ldi	r19, 0x02	; 2
    131e:	f8 01       	movw	r30, r16
    1320:	b7 fe       	sbrs	r11, 7
    1322:	07 c0       	rjmp	.+14     	; 0x1332 <vfprintf+0x274>
    1324:	60 81       	ld	r22, Z
    1326:	71 81       	ldd	r23, Z+1	; 0x01
    1328:	82 81       	ldd	r24, Z+2	; 0x02
    132a:	93 81       	ldd	r25, Z+3	; 0x03
    132c:	0c 5f       	subi	r16, 0xFC	; 252
    132e:	1f 4f       	sbci	r17, 0xFF	; 255
    1330:	06 c0       	rjmp	.+12     	; 0x133e <vfprintf+0x280>
    1332:	60 81       	ld	r22, Z
    1334:	71 81       	ldd	r23, Z+1	; 0x01
    1336:	80 e0       	ldi	r24, 0x00	; 0
    1338:	90 e0       	ldi	r25, 0x00	; 0
    133a:	0e 5f       	subi	r16, 0xFE	; 254
    133c:	1f 4f       	sbci	r17, 0xFF	; 255
    133e:	a4 01       	movw	r20, r8
    1340:	0e 94 7f 0a 	call	0x14fe	; 0x14fe <__ultoa_invert>
    1344:	a8 2e       	mov	r10, r24
    1346:	a8 18       	sub	r10, r8
    1348:	fb 2d       	mov	r31, r11
    134a:	ff 77       	andi	r31, 0x7F	; 127
    134c:	7f 2e       	mov	r7, r31
    134e:	76 fe       	sbrs	r7, 6
    1350:	0b c0       	rjmp	.+22     	; 0x1368 <vfprintf+0x2aa>
    1352:	37 2d       	mov	r19, r7
    1354:	3e 7f       	andi	r19, 0xFE	; 254
    1356:	a5 14       	cp	r10, r5
    1358:	50 f4       	brcc	.+20     	; 0x136e <vfprintf+0x2b0>
    135a:	74 fe       	sbrs	r7, 4
    135c:	0a c0       	rjmp	.+20     	; 0x1372 <vfprintf+0x2b4>
    135e:	72 fc       	sbrc	r7, 2
    1360:	08 c0       	rjmp	.+16     	; 0x1372 <vfprintf+0x2b4>
    1362:	37 2d       	mov	r19, r7
    1364:	3e 7e       	andi	r19, 0xEE	; 238
    1366:	05 c0       	rjmp	.+10     	; 0x1372 <vfprintf+0x2b4>
    1368:	ba 2c       	mov	r11, r10
    136a:	37 2d       	mov	r19, r7
    136c:	03 c0       	rjmp	.+6      	; 0x1374 <vfprintf+0x2b6>
    136e:	ba 2c       	mov	r11, r10
    1370:	01 c0       	rjmp	.+2      	; 0x1374 <vfprintf+0x2b6>
    1372:	b5 2c       	mov	r11, r5
    1374:	34 ff       	sbrs	r19, 4
    1376:	0d c0       	rjmp	.+26     	; 0x1392 <vfprintf+0x2d4>
    1378:	fe 01       	movw	r30, r28
    137a:	ea 0d       	add	r30, r10
    137c:	f1 1d       	adc	r31, r1
    137e:	80 81       	ld	r24, Z
    1380:	80 33       	cpi	r24, 0x30	; 48
    1382:	11 f4       	brne	.+4      	; 0x1388 <vfprintf+0x2ca>
    1384:	39 7e       	andi	r19, 0xE9	; 233
    1386:	09 c0       	rjmp	.+18     	; 0x139a <vfprintf+0x2dc>
    1388:	32 ff       	sbrs	r19, 2
    138a:	06 c0       	rjmp	.+12     	; 0x1398 <vfprintf+0x2da>
    138c:	b3 94       	inc	r11
    138e:	b3 94       	inc	r11
    1390:	04 c0       	rjmp	.+8      	; 0x139a <vfprintf+0x2dc>
    1392:	83 2f       	mov	r24, r19
    1394:	86 78       	andi	r24, 0x86	; 134
    1396:	09 f0       	breq	.+2      	; 0x139a <vfprintf+0x2dc>
    1398:	b3 94       	inc	r11
    139a:	33 fd       	sbrc	r19, 3
    139c:	13 c0       	rjmp	.+38     	; 0x13c4 <vfprintf+0x306>
    139e:	30 ff       	sbrs	r19, 0
    13a0:	06 c0       	rjmp	.+12     	; 0x13ae <vfprintf+0x2f0>
    13a2:	5a 2c       	mov	r5, r10
    13a4:	b3 14       	cp	r11, r3
    13a6:	18 f4       	brcc	.+6      	; 0x13ae <vfprintf+0x2f0>
    13a8:	53 0c       	add	r5, r3
    13aa:	5b 18       	sub	r5, r11
    13ac:	b3 2c       	mov	r11, r3
    13ae:	b3 14       	cp	r11, r3
    13b0:	68 f4       	brcc	.+26     	; 0x13cc <vfprintf+0x30e>
    13b2:	b7 01       	movw	r22, r14
    13b4:	80 e2       	ldi	r24, 0x20	; 32
    13b6:	90 e0       	ldi	r25, 0x00	; 0
    13b8:	3c 87       	std	Y+12, r19	; 0x0c
    13ba:	0e 94 47 0a 	call	0x148e	; 0x148e <fputc>
    13be:	b3 94       	inc	r11
    13c0:	3c 85       	ldd	r19, Y+12	; 0x0c
    13c2:	f5 cf       	rjmp	.-22     	; 0x13ae <vfprintf+0x2f0>
    13c4:	b3 14       	cp	r11, r3
    13c6:	10 f4       	brcc	.+4      	; 0x13cc <vfprintf+0x30e>
    13c8:	3b 18       	sub	r3, r11
    13ca:	01 c0       	rjmp	.+2      	; 0x13ce <vfprintf+0x310>
    13cc:	31 2c       	mov	r3, r1
    13ce:	34 ff       	sbrs	r19, 4
    13d0:	12 c0       	rjmp	.+36     	; 0x13f6 <vfprintf+0x338>
    13d2:	b7 01       	movw	r22, r14
    13d4:	80 e3       	ldi	r24, 0x30	; 48
    13d6:	90 e0       	ldi	r25, 0x00	; 0
    13d8:	3c 87       	std	Y+12, r19	; 0x0c
    13da:	0e 94 47 0a 	call	0x148e	; 0x148e <fputc>
    13de:	3c 85       	ldd	r19, Y+12	; 0x0c
    13e0:	32 ff       	sbrs	r19, 2
    13e2:	17 c0       	rjmp	.+46     	; 0x1412 <vfprintf+0x354>
    13e4:	31 fd       	sbrc	r19, 1
    13e6:	03 c0       	rjmp	.+6      	; 0x13ee <vfprintf+0x330>
    13e8:	88 e7       	ldi	r24, 0x78	; 120
    13ea:	90 e0       	ldi	r25, 0x00	; 0
    13ec:	02 c0       	rjmp	.+4      	; 0x13f2 <vfprintf+0x334>
    13ee:	88 e5       	ldi	r24, 0x58	; 88
    13f0:	90 e0       	ldi	r25, 0x00	; 0
    13f2:	b7 01       	movw	r22, r14
    13f4:	0c c0       	rjmp	.+24     	; 0x140e <vfprintf+0x350>
    13f6:	83 2f       	mov	r24, r19
    13f8:	86 78       	andi	r24, 0x86	; 134
    13fa:	59 f0       	breq	.+22     	; 0x1412 <vfprintf+0x354>
    13fc:	31 ff       	sbrs	r19, 1
    13fe:	02 c0       	rjmp	.+4      	; 0x1404 <vfprintf+0x346>
    1400:	8b e2       	ldi	r24, 0x2B	; 43
    1402:	01 c0       	rjmp	.+2      	; 0x1406 <vfprintf+0x348>
    1404:	80 e2       	ldi	r24, 0x20	; 32
    1406:	37 fd       	sbrc	r19, 7
    1408:	8d e2       	ldi	r24, 0x2D	; 45
    140a:	b7 01       	movw	r22, r14
    140c:	90 e0       	ldi	r25, 0x00	; 0
    140e:	0e 94 47 0a 	call	0x148e	; 0x148e <fputc>
    1412:	a5 14       	cp	r10, r5
    1414:	38 f4       	brcc	.+14     	; 0x1424 <vfprintf+0x366>
    1416:	b7 01       	movw	r22, r14
    1418:	80 e3       	ldi	r24, 0x30	; 48
    141a:	90 e0       	ldi	r25, 0x00	; 0
    141c:	0e 94 47 0a 	call	0x148e	; 0x148e <fputc>
    1420:	5a 94       	dec	r5
    1422:	f7 cf       	rjmp	.-18     	; 0x1412 <vfprintf+0x354>
    1424:	aa 94       	dec	r10
    1426:	f4 01       	movw	r30, r8
    1428:	ea 0d       	add	r30, r10
    142a:	f1 1d       	adc	r31, r1
    142c:	80 81       	ld	r24, Z
    142e:	b7 01       	movw	r22, r14
    1430:	90 e0       	ldi	r25, 0x00	; 0
    1432:	0e 94 47 0a 	call	0x148e	; 0x148e <fputc>
    1436:	a1 10       	cpse	r10, r1
    1438:	f5 cf       	rjmp	.-22     	; 0x1424 <vfprintf+0x366>
    143a:	33 20       	and	r3, r3
    143c:	09 f4       	brne	.+2      	; 0x1440 <vfprintf+0x382>
    143e:	51 ce       	rjmp	.-862    	; 0x10e2 <vfprintf+0x24>
    1440:	b7 01       	movw	r22, r14
    1442:	80 e2       	ldi	r24, 0x20	; 32
    1444:	90 e0       	ldi	r25, 0x00	; 0
    1446:	0e 94 47 0a 	call	0x148e	; 0x148e <fputc>
    144a:	3a 94       	dec	r3
    144c:	f6 cf       	rjmp	.-20     	; 0x143a <vfprintf+0x37c>
    144e:	f7 01       	movw	r30, r14
    1450:	86 81       	ldd	r24, Z+6	; 0x06
    1452:	97 81       	ldd	r25, Z+7	; 0x07
    1454:	02 c0       	rjmp	.+4      	; 0x145a <vfprintf+0x39c>
    1456:	8f ef       	ldi	r24, 0xFF	; 255
    1458:	9f ef       	ldi	r25, 0xFF	; 255
    145a:	2c 96       	adiw	r28, 0x0c	; 12
    145c:	e2 e1       	ldi	r30, 0x12	; 18
    145e:	0c 94 f9 0a 	jmp	0x15f2	; 0x15f2 <__epilogue_restores__>

00001462 <strnlen_P>:
    1462:	fc 01       	movw	r30, r24
    1464:	05 90       	lpm	r0, Z+
    1466:	61 50       	subi	r22, 0x01	; 1
    1468:	70 40       	sbci	r23, 0x00	; 0
    146a:	01 10       	cpse	r0, r1
    146c:	d8 f7       	brcc	.-10     	; 0x1464 <strnlen_P+0x2>
    146e:	80 95       	com	r24
    1470:	90 95       	com	r25
    1472:	8e 0f       	add	r24, r30
    1474:	9f 1f       	adc	r25, r31
    1476:	08 95       	ret

00001478 <strnlen>:
    1478:	fc 01       	movw	r30, r24
    147a:	61 50       	subi	r22, 0x01	; 1
    147c:	70 40       	sbci	r23, 0x00	; 0
    147e:	01 90       	ld	r0, Z+
    1480:	01 10       	cpse	r0, r1
    1482:	d8 f7       	brcc	.-10     	; 0x147a <strnlen+0x2>
    1484:	80 95       	com	r24
    1486:	90 95       	com	r25
    1488:	8e 0f       	add	r24, r30
    148a:	9f 1f       	adc	r25, r31
    148c:	08 95       	ret

0000148e <fputc>:
    148e:	0f 93       	push	r16
    1490:	1f 93       	push	r17
    1492:	cf 93       	push	r28
    1494:	df 93       	push	r29
    1496:	fb 01       	movw	r30, r22
    1498:	23 81       	ldd	r18, Z+3	; 0x03
    149a:	21 fd       	sbrc	r18, 1
    149c:	03 c0       	rjmp	.+6      	; 0x14a4 <fputc+0x16>
    149e:	8f ef       	ldi	r24, 0xFF	; 255
    14a0:	9f ef       	ldi	r25, 0xFF	; 255
    14a2:	28 c0       	rjmp	.+80     	; 0x14f4 <fputc+0x66>
    14a4:	22 ff       	sbrs	r18, 2
    14a6:	16 c0       	rjmp	.+44     	; 0x14d4 <fputc+0x46>
    14a8:	46 81       	ldd	r20, Z+6	; 0x06
    14aa:	57 81       	ldd	r21, Z+7	; 0x07
    14ac:	24 81       	ldd	r18, Z+4	; 0x04
    14ae:	35 81       	ldd	r19, Z+5	; 0x05
    14b0:	42 17       	cp	r20, r18
    14b2:	53 07       	cpc	r21, r19
    14b4:	44 f4       	brge	.+16     	; 0x14c6 <fputc+0x38>
    14b6:	a0 81       	ld	r26, Z
    14b8:	b1 81       	ldd	r27, Z+1	; 0x01
    14ba:	9d 01       	movw	r18, r26
    14bc:	2f 5f       	subi	r18, 0xFF	; 255
    14be:	3f 4f       	sbci	r19, 0xFF	; 255
    14c0:	31 83       	std	Z+1, r19	; 0x01
    14c2:	20 83       	st	Z, r18
    14c4:	8c 93       	st	X, r24
    14c6:	26 81       	ldd	r18, Z+6	; 0x06
    14c8:	37 81       	ldd	r19, Z+7	; 0x07
    14ca:	2f 5f       	subi	r18, 0xFF	; 255
    14cc:	3f 4f       	sbci	r19, 0xFF	; 255
    14ce:	37 83       	std	Z+7, r19	; 0x07
    14d0:	26 83       	std	Z+6, r18	; 0x06
    14d2:	10 c0       	rjmp	.+32     	; 0x14f4 <fputc+0x66>
    14d4:	eb 01       	movw	r28, r22
    14d6:	09 2f       	mov	r16, r25
    14d8:	18 2f       	mov	r17, r24
    14da:	00 84       	ldd	r0, Z+8	; 0x08
    14dc:	f1 85       	ldd	r31, Z+9	; 0x09
    14de:	e0 2d       	mov	r30, r0
    14e0:	09 95       	icall
    14e2:	89 2b       	or	r24, r25
    14e4:	e1 f6       	brne	.-72     	; 0x149e <fputc+0x10>
    14e6:	8e 81       	ldd	r24, Y+6	; 0x06
    14e8:	9f 81       	ldd	r25, Y+7	; 0x07
    14ea:	01 96       	adiw	r24, 0x01	; 1
    14ec:	9f 83       	std	Y+7, r25	; 0x07
    14ee:	8e 83       	std	Y+6, r24	; 0x06
    14f0:	81 2f       	mov	r24, r17
    14f2:	90 2f       	mov	r25, r16
    14f4:	df 91       	pop	r29
    14f6:	cf 91       	pop	r28
    14f8:	1f 91       	pop	r17
    14fa:	0f 91       	pop	r16
    14fc:	08 95       	ret

000014fe <__ultoa_invert>:
    14fe:	fa 01       	movw	r30, r20
    1500:	aa 27       	eor	r26, r26
    1502:	28 30       	cpi	r18, 0x08	; 8
    1504:	51 f1       	breq	.+84     	; 0x155a <__ultoa_invert+0x5c>
    1506:	20 31       	cpi	r18, 0x10	; 16
    1508:	81 f1       	breq	.+96     	; 0x156a <__ultoa_invert+0x6c>
    150a:	e8 94       	clt
    150c:	6f 93       	push	r22
    150e:	6e 7f       	andi	r22, 0xFE	; 254
    1510:	6e 5f       	subi	r22, 0xFE	; 254
    1512:	7f 4f       	sbci	r23, 0xFF	; 255
    1514:	8f 4f       	sbci	r24, 0xFF	; 255
    1516:	9f 4f       	sbci	r25, 0xFF	; 255
    1518:	af 4f       	sbci	r26, 0xFF	; 255
    151a:	b1 e0       	ldi	r27, 0x01	; 1
    151c:	3e d0       	rcall	.+124    	; 0x159a <__ultoa_invert+0x9c>
    151e:	b4 e0       	ldi	r27, 0x04	; 4
    1520:	3c d0       	rcall	.+120    	; 0x159a <__ultoa_invert+0x9c>
    1522:	67 0f       	add	r22, r23
    1524:	78 1f       	adc	r23, r24
    1526:	89 1f       	adc	r24, r25
    1528:	9a 1f       	adc	r25, r26
    152a:	a1 1d       	adc	r26, r1
    152c:	68 0f       	add	r22, r24
    152e:	79 1f       	adc	r23, r25
    1530:	8a 1f       	adc	r24, r26
    1532:	91 1d       	adc	r25, r1
    1534:	a1 1d       	adc	r26, r1
    1536:	6a 0f       	add	r22, r26
    1538:	71 1d       	adc	r23, r1
    153a:	81 1d       	adc	r24, r1
    153c:	91 1d       	adc	r25, r1
    153e:	a1 1d       	adc	r26, r1
    1540:	20 d0       	rcall	.+64     	; 0x1582 <__ultoa_invert+0x84>
    1542:	09 f4       	brne	.+2      	; 0x1546 <__ultoa_invert+0x48>
    1544:	68 94       	set
    1546:	3f 91       	pop	r19
    1548:	2a e0       	ldi	r18, 0x0A	; 10
    154a:	26 9f       	mul	r18, r22
    154c:	11 24       	eor	r1, r1
    154e:	30 19       	sub	r19, r0
    1550:	30 5d       	subi	r19, 0xD0	; 208
    1552:	31 93       	st	Z+, r19
    1554:	de f6       	brtc	.-74     	; 0x150c <__ultoa_invert+0xe>
    1556:	cf 01       	movw	r24, r30
    1558:	08 95       	ret
    155a:	46 2f       	mov	r20, r22
    155c:	47 70       	andi	r20, 0x07	; 7
    155e:	40 5d       	subi	r20, 0xD0	; 208
    1560:	41 93       	st	Z+, r20
    1562:	b3 e0       	ldi	r27, 0x03	; 3
    1564:	0f d0       	rcall	.+30     	; 0x1584 <__ultoa_invert+0x86>
    1566:	c9 f7       	brne	.-14     	; 0x155a <__ultoa_invert+0x5c>
    1568:	f6 cf       	rjmp	.-20     	; 0x1556 <__ultoa_invert+0x58>
    156a:	46 2f       	mov	r20, r22
    156c:	4f 70       	andi	r20, 0x0F	; 15
    156e:	40 5d       	subi	r20, 0xD0	; 208
    1570:	4a 33       	cpi	r20, 0x3A	; 58
    1572:	18 f0       	brcs	.+6      	; 0x157a <__ultoa_invert+0x7c>
    1574:	49 5d       	subi	r20, 0xD9	; 217
    1576:	31 fd       	sbrc	r19, 1
    1578:	40 52       	subi	r20, 0x20	; 32
    157a:	41 93       	st	Z+, r20
    157c:	02 d0       	rcall	.+4      	; 0x1582 <__ultoa_invert+0x84>
    157e:	a9 f7       	brne	.-22     	; 0x156a <__ultoa_invert+0x6c>
    1580:	ea cf       	rjmp	.-44     	; 0x1556 <__ultoa_invert+0x58>
    1582:	b4 e0       	ldi	r27, 0x04	; 4
    1584:	a6 95       	lsr	r26
    1586:	97 95       	ror	r25
    1588:	87 95       	ror	r24
    158a:	77 95       	ror	r23
    158c:	67 95       	ror	r22
    158e:	ba 95       	dec	r27
    1590:	c9 f7       	brne	.-14     	; 0x1584 <__ultoa_invert+0x86>
    1592:	00 97       	sbiw	r24, 0x00	; 0
    1594:	61 05       	cpc	r22, r1
    1596:	71 05       	cpc	r23, r1
    1598:	08 95       	ret
    159a:	9b 01       	movw	r18, r22
    159c:	ac 01       	movw	r20, r24
    159e:	0a 2e       	mov	r0, r26
    15a0:	06 94       	lsr	r0
    15a2:	57 95       	ror	r21
    15a4:	47 95       	ror	r20
    15a6:	37 95       	ror	r19
    15a8:	27 95       	ror	r18
    15aa:	ba 95       	dec	r27
    15ac:	c9 f7       	brne	.-14     	; 0x15a0 <__ultoa_invert+0xa2>
    15ae:	62 0f       	add	r22, r18
    15b0:	73 1f       	adc	r23, r19
    15b2:	84 1f       	adc	r24, r20
    15b4:	95 1f       	adc	r25, r21
    15b6:	a0 1d       	adc	r26, r0
    15b8:	08 95       	ret

000015ba <__prologue_saves__>:
    15ba:	2f 92       	push	r2
    15bc:	3f 92       	push	r3
    15be:	4f 92       	push	r4
    15c0:	5f 92       	push	r5
    15c2:	6f 92       	push	r6
    15c4:	7f 92       	push	r7
    15c6:	8f 92       	push	r8
    15c8:	9f 92       	push	r9
    15ca:	af 92       	push	r10
    15cc:	bf 92       	push	r11
    15ce:	cf 92       	push	r12
    15d0:	df 92       	push	r13
    15d2:	ef 92       	push	r14
    15d4:	ff 92       	push	r15
    15d6:	0f 93       	push	r16
    15d8:	1f 93       	push	r17
    15da:	cf 93       	push	r28
    15dc:	df 93       	push	r29
    15de:	cd b7       	in	r28, 0x3d	; 61
    15e0:	de b7       	in	r29, 0x3e	; 62
    15e2:	ca 1b       	sub	r28, r26
    15e4:	db 0b       	sbc	r29, r27
    15e6:	0f b6       	in	r0, 0x3f	; 63
    15e8:	f8 94       	cli
    15ea:	de bf       	out	0x3e, r29	; 62
    15ec:	0f be       	out	0x3f, r0	; 63
    15ee:	cd bf       	out	0x3d, r28	; 61
    15f0:	09 94       	ijmp

000015f2 <__epilogue_restores__>:
    15f2:	2a 88       	ldd	r2, Y+18	; 0x12
    15f4:	39 88       	ldd	r3, Y+17	; 0x11
    15f6:	48 88       	ldd	r4, Y+16	; 0x10
    15f8:	5f 84       	ldd	r5, Y+15	; 0x0f
    15fa:	6e 84       	ldd	r6, Y+14	; 0x0e
    15fc:	7d 84       	ldd	r7, Y+13	; 0x0d
    15fe:	8c 84       	ldd	r8, Y+12	; 0x0c
    1600:	9b 84       	ldd	r9, Y+11	; 0x0b
    1602:	aa 84       	ldd	r10, Y+10	; 0x0a
    1604:	b9 84       	ldd	r11, Y+9	; 0x09
    1606:	c8 84       	ldd	r12, Y+8	; 0x08
    1608:	df 80       	ldd	r13, Y+7	; 0x07
    160a:	ee 80       	ldd	r14, Y+6	; 0x06
    160c:	fd 80       	ldd	r15, Y+5	; 0x05
    160e:	0c 81       	ldd	r16, Y+4	; 0x04
    1610:	1b 81       	ldd	r17, Y+3	; 0x03
    1612:	aa 81       	ldd	r26, Y+2	; 0x02
    1614:	b9 81       	ldd	r27, Y+1	; 0x01
    1616:	ce 0f       	add	r28, r30
    1618:	d1 1d       	adc	r29, r1
    161a:	0f b6       	in	r0, 0x3f	; 63
    161c:	f8 94       	cli
    161e:	de bf       	out	0x3e, r29	; 62
    1620:	0f be       	out	0x3f, r0	; 63
    1622:	cd bf       	out	0x3d, r28	; 61
    1624:	ed 01       	movw	r28, r26
    1626:	08 95       	ret

00001628 <_exit>:
    1628:	f8 94       	cli

0000162a <__stop_program>:
    162a:	ff cf       	rjmp	.-2      	; 0x162a <__stop_program>
